(dp1
S'files'
p2
(dp3
S'apps_photo_manager___init__'
p4
(dp5
S'index'
p6
(dp7
S'par'
p8
I0
sS'html_filename'
p9
S'apps_photo_manager___init__.html'
p10
sS'name'
p11
S'apps/photo_manager/__init__'
p12
sS'nums'
p13
ccopy_reg
_reconstructor
p14
(ccoverage.results
Numbers
p15
c__builtin__
object
p16
NtRp17
(dp18
S'n_files'
p19
I1
sS'n_branches'
p20
I0
sS'n_statements'
p21
I0
sS'n_excluded'
p22
I0
sS'n_missing'
p23
I0
sS'n_missing_branches'
p24
I0
sbssS'hash'
p25
S'\xb0\xc8pN\xaf>\xa0\xbaz\x144\xe0A9\xb8?'
p26
ssS'settings_common'
p27
(dp28
g6
(dp29
g8
I0
sg9
S'settings_common.html'
p30
sg11
S'settings/common'
p31
sg13
g14
(g15
g16
NtRp32
(dp33
g19
I1
sg20
I0
sg21
I30
sg22
I0
sg23
I0
sg24
I0
sbssg25
S'+Ynf\xc9\xf0E\x81\xbd\xa5\xb6^D\x97;l'
p34
ssS'apps_photo_manager_managers'
p35
(dp36
g6
(dp37
g8
I0
sg9
S'apps_photo_manager_managers.html'
p38
sg11
S'apps/photo_manager/managers'
p39
sg13
g14
(g15
g16
NtRp40
(dp41
g19
I1
sg20
I0
sg21
I4
sg22
I0
sg23
I1
sg24
I0
sbssg25
S'V\xca\xa7\x99\x06\x8c\x8f\x17q\xda\x07\xed\xac\x84\xca\xe3'
p42
ssS'apps_administrator_models'
p43
(dp44
g6
(dp45
g8
I0
sg9
S'apps_administrator_models.html'
p46
sg11
S'apps/administrator/models'
p47
sg13
g14
(g15
g16
NtRp48
(dp49
g19
I1
sg20
I0
sg21
I6
sg22
I0
sg23
I1
sg24
I0
sbssg25
S'\x11\xe6rtS\x1ca\xe0N|\xd8\x19\xe2\xb5\xa9 '
p50
ssS'settings_local'
p51
(dp52
g6
(dp53
g8
I0
sg9
S'settings_local.html'
p54
sg11
S'settings/local'
p55
sg13
g14
(g15
g16
NtRp56
(dp57
g19
I1
sg20
I0
sg21
I20
sg22
I0
sg23
I0
sg24
I0
sbssg25
S'mrh\x88\xe2\x1d\xcb\xbc\x90\xe7\xf2\xd8\xbdT#J'
p58
ssS'apps_administrator_tests___init__'
p59
(dp60
S'index'
p61
(dp62
S'par'
p63
I0
sS'html_filename'
p64
S'apps_administrator_tests___init__.html'
p65
sS'name'
p66
S'apps/administrator/tests/__init__'
p67
sS'nums'
p68
g14
(g15
g16
NtRp69
(dp70
S'n_files'
p71
I1
sS'n_branches'
p72
I0
sS'n_statements'
p73
I0
sS'n_excluded'
p74
I0
sS'n_missing'
p75
I0
sS'n_missing_branches'
p76
I0
sbssS'hash'
p77
S'\xb0\xc8pN\xaf>\xa0\xbaz\x144\xe0A9\xb8?'
p78
ssS'apps_photo_manager_tests___init__'
p79
(dp80
g6
(dp81
S'par'
p82
I0
sS'html_filename'
p83
S'apps_photo_manager_tests___init__.html'
p84
sS'name'
p85
S'apps/photo_manager/tests/__init__'
p86
sS'nums'
p87
g14
(g15
g16
NtRp88
(dp89
S'n_files'
p90
I1
sS'n_branches'
p91
I0
sS'n_statements'
p92
I1
sS'n_excluded'
p93
I0
sS'n_missing'
p94
I0
sS'n_missing_branches'
p95
I0
sbssg25
S'4\x9a~\xb9 r\x93\xf9\x86\xb5\x91\xb5\xb89\x88\x02'
p96
ssS'apps_photo_manager_tests_factories'
p97
(dp98
g6
(dp99
g8
I0
sg9
S'apps_photo_manager_tests_factories.html'
p100
sg11
S'apps/photo_manager/tests/factories'
p101
sg13
g14
(g15
g16
NtRp102
(dp103
g19
I1
sg20
I0
sg21
I8
sg22
I0
sg23
I0
sg24
I0
sbssg25
S'\x8es\x0f\xae\xac\x95\x02\xe3\xbbq\x15\xff\xe00 \x89'
p104
ssS'manage'
p105
(dp106
g6
(dp107
g8
I0
sg9
S'manage.html'
p108
sg11
g105
sg13
g14
(g15
g16
NtRp109
(dp110
g19
I1
sg20
I0
sg21
I6
sg22
I0
sg23
I0
sg24
I0
sbssg25
S'-\x0b\x1arF\x1bvK\x15\xc4\x87\xb6\x07Q\xf8\xba'
p111
ssS'conf_environment'
p112
(dp113
g6
(dp114
g8
I0
sg9
S'conf_environment.html'
p115
sg11
S'conf/environment'
p116
sg13
g14
(g15
g16
NtRp117
(dp118
g19
I1
sg20
I0
sg21
I15
sg22
I0
sg23
I0
sg24
I0
sbssg25
S'\xd4w\x99qt\xad5\x9aKP\x1a\xb7\x14\x16\xca\xbc'
p119
ssS'apps_photo_manager_tests_live'
p120
(dp121
g6
(dp122
S'par'
p123
I0
sS'html_filename'
p124
S'apps_photo_manager_tests_live.html'
p125
sS'name'
p126
S'apps/photo_manager/tests/live'
p127
sS'nums'
p128
g14
(g15
g16
NtRp129
(dp130
S'n_files'
p131
I1
sS'n_branches'
p132
I0
sS'n_statements'
p133
I26
sS'n_excluded'
p134
I0
sS'n_missing'
p135
I22
sS'n_missing_branches'
p136
I0
sbssg25
S'U\xae[R\xdd\x8a\xdcq\x08\x93\xcb>\xdc\xb9\xd1\xac'
p137
ssS'settings___init__'
p138
(dp139
g6
(dp140
g8
I0
sg9
S'settings___init__.html'
p141
sg11
S'settings/__init__'
p142
sg13
g14
(g15
g16
NtRp143
(dp144
g19
I1
sg20
I0
sg21
I0
sg22
I0
sg23
I0
sg24
I0
sbssg25
S'\xb0\xc8pN\xaf>\xa0\xbaz\x144\xe0A9\xb8?'
p145
ssS'apps_photo_manager_search_indexes'
p146
(dp147
g6
(dp148
g8
I0
sg9
S'apps_photo_manager_search_indexes.html'
p149
sg11
S'apps/photo_manager/search_indexes'
p150
sg13
g14
(g15
g16
NtRp151
(dp152
g19
I1
sg20
I0
sg21
I13
sg22
I0
sg23
I2
sg24
I0
sbssg25
S'\xf7\xdf\xe3\xe8;-\x7f\xf5\xa3@l\xc8\xc8\xd0\xa4\\'
p153
ssS'apps_photo_manager_tests_selenium_public'
p154
(dp155
S'index'
p156
(dp157
g82
I0
sg83
S'apps_photo_manager_tests_selenium_public.html'
p158
sg85
S'apps/photo_manager/tests/selenium/public'
p159
sg87
g14
(g15
g16
NtRp160
(dp161
g90
I1
sg91
I0
sg92
I35
sg93
I0
sg94
I15
sg95
I0
sbssS'hash'
p162
S'V\x03Q\xff\x9fN\x0c\x06\xfd3\xbb\x81\xb2\x84\x93\x80'
p163
ssS'apps_photo_manager_models'
p164
(dp165
g6
(dp166
g123
I0
sg124
S'apps_photo_manager_models.html'
p167
sg126
S'apps/photo_manager/models'
p168
sg128
g14
(g15
g16
NtRp169
(dp170
g131
I1
sg132
I0
sg133
I119
sg134
I0
sg135
I67
sg136
I0
sbssg25
S'\x0f\xc37\x92(\xfdZ4\xc7\x96\xdc\xad\xca\x01\xcc\x05'
p171
ssS'apps_photo_manager_tests_selenium___init__'
p172
(dp173
g6
(dp174
g8
I0
sg9
S'apps_photo_manager_tests_selenium___init__.html'
p175
sg11
S'apps/photo_manager/tests/selenium/__init__'
p176
sg13
g14
(g15
g16
NtRp177
(dp178
g19
I1
sg20
I0
sg21
I0
sg22
I0
sg23
I0
sg24
I0
sbssg25
S'\xb0\xc8pN\xaf>\xa0\xbaz\x144\xe0A9\xb8?'
p179
ssS'apps_administrator___init__'
p180
(dp181
g6
(dp182
g8
I0
sg9
S'apps_administrator___init__.html'
p183
sg11
S'apps/administrator/__init__'
p184
sg13
g14
(g15
g16
NtRp185
(dp186
g19
I1
sg20
I0
sg21
I0
sg22
I0
sg23
I0
sg24
I0
sbssg25
S'\xb0\xc8pN\xaf>\xa0\xbaz\x144\xe0A9\xb8?'
p187
ssS'apps_administrator_tests_factories'
p188
(dp189
g61
(dp190
g63
I0
sg64
S'apps_administrator_tests_factories.html'
p191
sg66
S'apps/administrator/tests/factories'
p192
sg68
g14
(g15
g16
NtRp193
(dp194
g71
I1
sg72
I0
sg73
I6
sg74
I0
sg75
I0
sg76
I0
sbssg77
S'\xf6\xae\x9f\t_\xe5\xd3\x82\xb1\xd6\xea\xf8\x11\xe0\xdd\x19'
p195
ssS'conf___init__'
p196
(dp197
g6
(dp198
g8
I0
sg9
S'conf___init__.html'
p199
sg11
S'conf/__init__'
p200
sg13
g14
(g15
g16
NtRp201
(dp202
g19
I1
sg20
I0
sg21
I0
sg22
I0
sg23
I0
sg24
I0
sbssg25
S'\xb0\xc8pN\xaf>\xa0\xbaz\x144\xe0A9\xb8?'
p203
ssS'apps_photo_manager_tests_models'
p204
(dp205
g61
(dp206
g63
I0
sg64
S'apps_photo_manager_tests_models.html'
p207
sg66
S'apps/photo_manager/tests/models'
p208
sg68
g14
(g15
g16
NtRp209
(dp210
g71
I1
sg72
I0
sg73
I37
sg74
I0
sg75
I0
sg76
I0
sbssg77
S'd`\x93tmC\xbb\xa9\xe2\xd4\x7f\xed\xf6\x93y,'
p211
ssS'search_sites'
p212
(dp213
g6
(dp214
g8
I0
sg9
S'search_sites.html'
p215
sg11
g212
sg13
g14
(g15
g16
NtRp216
(dp217
g19
I1
sg20
I0
sg21
I2
sg22
I0
sg23
I0
sg24
I0
sbssg25
S'0F\x8fl*j@\x8cI\xe7\x86r\x9a\xa1sm'
p218
sssS'version'
p219
S'3.5.2'
p220
sS'settings'
p221
S'\x19\x88O\xd2C\xb3\xef\xe3j\x81\xc0\x88\x7fG\xcc\xa2'
p222
sS'format'
p223
I1
s.