(dp1
S'files'
p2
(dp3
S'apps_administrator_jobs'
p4
(dp5
S'index'
p6
(dp7
S'par'
p8
I0
sS'html_filename'
p9
S'apps_administrator_jobs.html'
p10
sS'name'
p11
S'apps/administrator/jobs'
p12
sS'nums'
p13
ccopy_reg
_reconstructor
p14
(ccoverage.results
Numbers
p15
c__builtin__
object
p16
NtRp17
(dp18
S'n_files'
p19
I1
sS'n_branches'
p20
I0
sS'n_statements'
p21
I13
sS'n_excluded'
p22
I0
sS'n_missing'
p23
I11
sS'n_missing_branches'
p24
I0
sbssS'hash'
p25
S't\xddR\xec\n\xbc\xd0y\xb6|\x87i8u\xcf\x1e'
p26
ssS'conf_environment'
p27
(dp28
g6
(dp29
g8
I0
sg9
S'conf_environment.html'
p30
sg11
S'conf/environment'
p31
sg13
g14
(g15
g16
NtRp32
(dp33
g19
I1
sg20
I0
sg21
I15
sg22
I0
sg23
I0
sg24
I0
sbssg25
S'\xd4w\x99qt\xad5\x9aKP\x1a\xb7\x14\x16\xca\xbc'
p34
ssS'apps_administrator_models'
p35
(dp36
g6
(dp37
g8
I0
sg9
S'apps_administrator_models.html'
p38
sg11
S'apps/administrator/models'
p39
sg13
g14
(g15
g16
NtRp40
(dp41
g19
I1
sg20
I0
sg21
I6
sg22
I0
sg23
I1
sg24
I0
sbssg25
S'\x83\xd9\xcb\x10\xa1k\x03\xf1\xe3\xd2@Fb\x94\xdb\xa3'
p42
ssS'apps_profiles___init__'
p43
(dp44
g6
(dp45
g8
I0
sg9
S'apps_profiles___init__.html'
p46
sg11
S'apps/profiles/__init__'
p47
sg13
g14
(g15
g16
NtRp48
(dp49
g19
I1
sg20
I0
sg21
I0
sg22
I0
sg23
I0
sg24
I0
sbssg25
S'\xb0\xc8pN\xaf>\xa0\xbaz\x144\xe0A9\xb8?'
p50
ssS'apps_photo_manager_tests___init__'
p51
(dp52
g6
(dp53
S'par'
p54
I0
sS'html_filename'
p55
S'apps_photo_manager_tests___init__.html'
p56
sS'name'
p57
S'apps/photo_manager/tests/__init__'
p58
sS'nums'
p59
g14
(g15
g16
NtRp60
(dp61
g19
I1
sg20
I0
sg21
I2
sg22
I0
sg23
I0
sg24
I0
sbssg25
S'`\x0f\\\xc9\xca\xfa%\xef\x13\xb8\xe1\xac\xcbS^\n'
p62
ssS'apps_photo_manager_api'
p63
(dp64
g6
(dp65
g8
I0
sg9
S'apps_photo_manager_api.html'
p66
sg11
S'apps/photo_manager/api'
p67
sg13
g14
(g15
g16
NtRp68
(dp69
g19
I1
sg20
I0
sg21
I60
sg22
I0
sg23
I25
sg24
I0
sbssg25
S'\xe73G\xed7\x1b\xf4\xca\x90\x18\xb2\xeb\xac\xa6\x8e\xbb'
p70
ssS'apps_administrator_context_processors'
p71
(dp72
g6
(dp73
g8
I0
sg9
S'apps_administrator_context_processors.html'
p74
sg11
S'apps/administrator/context_processors'
p75
sg13
g14
(g15
g16
NtRp76
(dp77
g19
I1
sg20
I0
sg21
I6
sg22
I0
sg23
I2
sg24
I0
sbssg25
S'\x88\x14\xed\xd4C\xfe\xae\x03\xc2\x1c\xa6m\xad\xdc\x92\xf9'
p78
ssS'apps_administrator_urls'
p79
(dp80
g6
(dp81
g8
I0
sg9
S'apps_administrator_urls.html'
p82
sg11
S'apps/administrator/urls'
p83
sg13
g14
(g15
g16
NtRp84
(dp85
g19
I1
sg20
I0
sg21
I3
sg22
I0
sg23
I0
sg24
I0
sbssg25
S'\x86\r{;3\x88\xcaH\xedVJ\xc4\x96\xa3\xf4B'
p86
ssS'apps_photo_manager_tasks'
p87
(dp88
g6
(dp89
g8
I0
sg9
S'apps_photo_manager_tasks.html'
p90
sg11
S'apps/photo_manager/tasks'
p91
sg13
g14
(g15
g16
NtRp92
(dp93
g19
I1
sg20
I0
sg21
I10
sg22
I0
sg23
I4
sg24
I0
sbssg25
S'a\xd3bteF~\x8c\xe3\xfb\xaeD\xe1\xd5\xe6\x8d'
p94
ssS'apps_photo_manager_views'
p95
(dp96
g6
(dp97
g8
I0
sg9
S'apps_photo_manager_views.html'
p98
sg11
S'apps/photo_manager/views'
p99
sg13
g14
(g15
g16
NtRp100
(dp101
g19
I1
sg20
I0
sg21
I132
sg22
I0
sg23
I83
sg24
I0
sbssg25
S'\x9c\x08\xd6\x939\xdeW\xb1\xb0a c&\x12\x0e\xcb'
p102
ssS'apps_photo_manager_tests_live'
p103
(dp104
S'index'
p105
(dp106
g54
I0
sg55
S'apps_photo_manager_tests_live.html'
p107
sg57
S'apps/photo_manager/tests/live'
p108
sg59
g14
(g15
g16
NtRp109
(dp110
g19
I1
sg20
I0
sg21
I0
sg22
I0
sg23
I0
sg24
I0
sbssS'hash'
p111
S'\xb0\xc8pN\xaf>\xa0\xbaz\x144\xe0A9\xb8?'
p112
ssS'apps_profiles_choices'
p113
(dp114
g6
(dp115
g8
I0
sg9
S'apps_profiles_choices.html'
p116
sg11
S'apps/profiles/choices'
p117
sg13
g14
(g15
g16
NtRp118
(dp119
g19
I1
sg20
I0
sg21
I1
sg22
I0
sg23
I0
sg24
I0
sbssg25
S'\x8e\xb4\xc0\t\xd4\xf5FJWIp\xdcv\x99\x1b\x14'
p120
ssS'apps_profiles_models'
p121
(dp122
g6
(dp123
g8
I0
sg9
S'apps_profiles_models.html'
p124
sg11
S'apps/profiles/models'
p125
sg13
g14
(g15
g16
NtRp126
(dp127
g19
I1
sg20
I0
sg21
I9
sg22
I0
sg23
I0
sg24
I0
sbssg25
S'\xfa\x0cD\x83\x9b\xc2T\x14c\x87\xc6\x19\x99kN\x07'
p128
ssS'urls___init__'
p129
(dp130
g6
(dp131
g8
I0
sg9
S'urls___init__.html'
p132
sg11
S'urls/__init__'
p133
sg13
g14
(g15
g16
NtRp134
(dp135
g19
I1
sg20
I0
sg21
I0
sg22
I0
sg23
I0
sg24
I0
sbssg25
S'\xb0\xc8pN\xaf>\xa0\xbaz\x144\xe0A9\xb8?'
p136
ssS'apps_administrator_migrations___init__'
p137
(dp138
g6
(dp139
g8
I0
sg9
S'apps_administrator_migrations___init__.html'
p140
sg11
S'apps/administrator/migrations/__init__'
p141
sg13
g14
(g15
g16
NtRp142
(dp143
g19
I1
sg20
I0
sg21
I0
sg22
I0
sg23
I0
sg24
I0
sbssg25
S'\xb0\xc8pN\xaf>\xa0\xbaz\x144\xe0A9\xb8?'
p144
ssS'apps_photo_manager_urls'
p145
(dp146
g6
(dp147
g8
I0
sg9
S'apps_photo_manager_urls.html'
p148
sg11
S'apps/photo_manager/urls'
p149
sg13
g14
(g15
g16
NtRp150
(dp151
g19
I1
sg20
I0
sg21
I12
sg22
I0
sg23
I0
sg24
I0
sbssg25
S'\x14\xe2\xcai\x9c$\xc3\xe7rC\xa3\xc3\xce\x906\xfb'
p152
ssS'apps_photo_manager_admin'
p153
(dp154
g6
(dp155
g8
I0
sg9
S'apps_photo_manager_admin.html'
p156
sg11
S'apps/photo_manager/admin'
p157
sg13
g14
(g15
g16
NtRp158
(dp159
g19
I1
sg20
I0
sg21
I9
sg22
I0
sg23
I0
sg24
I0
sbssg25
S'\xdc**S&|\xf5\x93\x88&W\xa5"?\x1fY'
p160
ssS'apps_photo_manager_tests_factories'
p161
(dp162
g105
(dp163
g54
I0
sg55
S'apps_photo_manager_tests_factories.html'
p164
sg57
S'apps/photo_manager/tests/factories'
p165
sg59
g14
(g15
g16
NtRp166
(dp167
g19
I1
sg20
I0
sg21
I8
sg22
I0
sg23
I0
sg24
I0
sbssg111
S'\x8es\x0f\xae\xac\x95\x02\xe3\xbbq\x15\xff\xe00 \x89'
p168
ssS'settings___init__'
p169
(dp170
g6
(dp171
g8
I0
sg9
S'settings___init__.html'
p172
sg11
S'settings/__init__'
p173
sg13
g14
(g15
g16
NtRp174
(dp175
g19
I1
sg20
I0
sg21
I0
sg22
I0
sg23
I0
sg24
I0
sbssg25
S'\xb0\xc8pN\xaf>\xa0\xbaz\x144\xe0A9\xb8?'
p176
ssS'apps_administrator_views'
p177
(dp178
g6
(dp179
g8
I0
sg9
S'apps_administrator_views.html'
p180
sg11
S'apps/administrator/views'
p181
sg13
g14
(g15
g16
NtRp182
(dp183
g19
I1
sg20
I0
sg21
I166
sg22
I0
sg23
I127
sg24
I0
sbssg25
S'\x82\xccw\x9bL\xb2Q\x02\xd1G\x99%A$\xe6\xf2'
p184
ssS'conf_defaults'
p185
(dp186
g6
(dp187
g8
I0
sg9
S'conf_defaults.html'
p188
sg11
S'conf/defaults'
p189
sg13
g14
(g15
g16
NtRp190
(dp191
g19
I1
sg20
I0
sg21
I1
sg22
I0
sg23
I0
sg24
I0
sbssg25
S'MMG/sQ\xebl\xde9\xb6\tG\x83\x94g'
p192
ssS'apps_photo_manager_models'
p193
(dp194
g6
(dp195
S'par'
p196
I0
sS'html_filename'
p197
S'apps_photo_manager_models.html'
p198
sS'name'
p199
S'apps/photo_manager/models'
p200
sS'nums'
p201
g14
(g15
g16
NtRp202
(dp203
g19
I1
sg20
I0
sg21
I117
sg22
I0
sg23
I61
sg24
I0
sbssg25
S'LZ\xa7(\x12\xbf\xd1\xeb(Un\xf9 \x8e\xb7\xd1'
p204
ssS'apps_profiles_admin'
p205
(dp206
g6
(dp207
g8
I0
sg9
S'apps_profiles_admin.html'
p208
sg11
S'apps/profiles/admin'
p209
sg13
g14
(g15
g16
NtRp210
(dp211
g19
I1
sg20
I0
sg21
I14
sg22
I0
sg23
I0
sg24
I0
sbssg25
S'\x8f[\xcc\x1b\xdbE\r\x9b(\xf9\x1fO-\xa1\xfc,'
p212
ssS'apps_photo_manager_tests_tests'
p213
(dp214
g6
(dp215
g8
I0
sg9
S'apps_photo_manager_tests_tests.html'
p216
sg11
S'apps/photo_manager/tests/tests'
p217
sg13
g14
(g15
g16
NtRp218
(dp219
g19
I1
sg20
I0
sg21
I0
sg22
I0
sg23
I0
sg24
I0
sbssg25
S'\xb0\xc8pN\xaf>\xa0\xbaz\x144\xe0A9\xb8?'
p220
ssS'apps_photo_manager_tests_models'
p221
(dp222
g105
(dp223
S'par'
p224
I0
sS'html_filename'
p225
S'apps_photo_manager_tests_models.html'
p226
sS'name'
p227
S'apps/photo_manager/tests/models'
p228
sS'nums'
p229
g14
(g15
g16
NtRp230
(dp231
g19
I1
sg20
I0
sg21
I21
sg22
I0
sg23
I0
sg24
I0
sbssg111
S'\xe8u\xa0\x8f\xe80\xd3C\xdb\xfd\x10GEfs\x01'
p232
ssS'apps_profiles_migrations___init__'
p233
(dp234
g6
(dp235
g8
I0
sg9
S'apps_profiles_migrations___init__.html'
p236
sg11
S'apps/profiles/migrations/__init__'
p237
sg13
g14
(g15
g16
NtRp238
(dp239
g19
I1
sg20
I0
sg21
I0
sg22
I0
sg23
I0
sg24
I0
sbssg25
S'\xb0\xc8pN\xaf>\xa0\xbaz\x144\xe0A9\xb8?'
p240
ssS'apps_profiles_migrations_0002_auto__add_field_profile_profile_picture'
p241
(dp242
g6
(dp243
g8
I0
sg9
S'apps_profiles_migrations_0002_auto__add_field_profile_profile_picture.html'
p244
sg11
S'apps/profiles/migrations/0002_auto__add_field_profile_profile_picture'
p245
sg13
g14
(g15
g16
NtRp246
(dp247
g19
I1
sg20
I0
sg21
I11
sg22
I0
sg23
I1
sg24
I0
sbssg25
S'\xff\x16\x11$JB\x8d\x92\xa3\xa0\x1eu\xff\xed&\xe3'
p248
ssS'settings_local'
p249
(dp250
g6
(dp251
g8
I0
sg9
S'settings_local.html'
p252
sg11
S'settings/local'
p253
sg13
g14
(g15
g16
NtRp254
(dp255
g19
I1
sg20
I0
sg21
I19
sg22
I0
sg23
I0
sg24
I0
sbssg25
S'v\xc1\xc29\x81\x0bW\xc5\xcc\xab\xda\xfb\xa1\xc3\xd2\x9d'
p256
ssS'manage'
p257
(dp258
g6
(dp259
g8
I0
sg9
S'manage.html'
p260
sg11
g257
sg13
g14
(g15
g16
NtRp261
(dp262
g19
I1
sg20
I0
sg21
I6
sg22
I0
sg23
I0
sg24
I0
sbssg25
S'-\x0b\x1arF\x1bvK\x15\xc4\x87\xb6\x07Q\xf8\xba'
p263
ssS'apps_photo_manager___init__'
p264
(dp265
g6
(dp266
g8
I0
sg9
S'apps_photo_manager___init__.html'
p267
sg11
S'apps/photo_manager/__init__'
p268
sg13
g14
(g15
g16
NtRp269
(dp270
g19
I1
sg20
I0
sg21
I0
sg22
I0
sg23
I0
sg24
I0
sbssg25
S'\xb0\xc8pN\xaf>\xa0\xbaz\x144\xe0A9\xb8?'
p271
ssS'apps_photo_manager_context_processors'
p272
(dp273
g6
(dp274
g8
I0
sg9
S'apps_photo_manager_context_processors.html'
p275
sg11
S'apps/photo_manager/context_processors'
p276
sg13
g14
(g15
g16
NtRp277
(dp278
g19
I1
sg20
I0
sg21
I13
sg22
I0
sg23
I0
sg24
I0
sbssg25
S'\xf9%\xd6\x05\xe3\xb0F\xb4g\x82Z\xe8w\x95\xbbM'
p279
ssS'apps_photo_manager_managers'
p280
(dp281
g6
(dp282
S'par'
p283
I0
sS'html_filename'
p284
S'apps_photo_manager_managers.html'
p285
sS'name'
p286
S'apps/photo_manager/managers'
p287
sS'nums'
p288
g14
(g15
g16
NtRp289
(dp290
g19
I1
sg20
I0
sg21
I4
sg22
I0
sg23
I1
sg24
I0
sbssg25
S'V\xca\xa7\x99\x06\x8c\x8f\x17q\xda\x07\xed\xac\x84\xca\xe3'
p291
ssS'apps_administrator_tasks'
p292
(dp293
g6
(dp294
g8
I0
sg9
S'apps_administrator_tasks.html'
p295
sg11
S'apps/administrator/tasks'
p296
sg13
g14
(g15
g16
NtRp297
(dp298
g19
I1
sg20
I0
sg21
I10
sg22
I0
sg23
I4
sg24
I0
sbssg25
S'a\xd3bteF~\x8c\xe3\xfb\xaeD\xe1\xd5\xe6\x8d'
p299
ssS'apps_photo_manager_migrations_0002_auto__add_field_photo_thumbs_created'
p300
(dp301
g6
(dp302
g8
I0
sg9
S'apps_photo_manager_migrations_0002_auto__add_field_photo_thumbs_created.html'
p303
sg11
S'apps/photo_manager/migrations/0002_auto__add_field_photo_thumbs_created'
p304
sg13
g14
(g15
g16
NtRp305
(dp306
g19
I1
sg20
I0
sg21
I11
sg22
I0
sg23
I1
sg24
I0
sbssg25
S'\r\xa1\xa2O\xcbx+\xa6R\xbd1\xa7\xa9\x98\xac\xbf'
p307
ssS'apps_administrator___init__'
p308
(dp309
g6
(dp310
g8
I0
sg9
S'apps_administrator___init__.html'
p311
sg11
S'apps/administrator/__init__'
p312
sg13
g14
(g15
g16
NtRp313
(dp314
g19
I1
sg20
I0
sg21
I0
sg22
I0
sg23
I0
sg24
I0
sbssg25
S'\xb0\xc8pN\xaf>\xa0\xbaz\x144\xe0A9\xb8?'
p315
ssS'apps_photo_manager_migrations_0003_auto__chg_field_photo_user__chg_field_photo_date_uploaded'
p316
(dp317
g6
(dp318
g8
I0
sg9
S'apps_photo_manager_migrations_0003_auto__chg_field_photo_user__chg_field_photo_date_uploaded.html'
p319
sg11
S'apps/photo_manager/migrations/0003_auto__chg_field_photo_user__chg_field_photo_date_uploaded'
p320
sg13
g14
(g15
g16
NtRp321
(dp322
g19
I1
sg20
I0
sg21
I13
sg22
I0
sg23
I2
sg24
I0
sbssg25
S'C\xa0\x17\xa3.\x8f\x1f\x04\x9f5Hg\xd3GSC'
p323
ssS'settings_common'
p324
(dp325
g6
(dp326
g8
I0
sg9
S'settings_common.html'
p327
sg11
S'settings/common'
p328
sg13
g14
(g15
g16
NtRp329
(dp330
g19
I1
sg20
I0
sg21
I25
sg22
I0
sg23
I0
sg24
I0
sbssg25
S'\x83>\xca\x95\xb0zH\xb1\xc3\xa8\x0e>\xcd\xe5\x14\xfe'
p331
ssS'apps_profiles_migrations_0001_initial'
p332
(dp333
g6
(dp334
g8
I0
sg9
S'apps_profiles_migrations_0001_initial.html'
p335
sg11
S'apps/profiles/migrations/0001_initial'
p336
sg13
g14
(g15
g16
NtRp337
(dp338
g19
I1
sg20
I0
sg21
I12
sg22
I0
sg23
I1
sg24
I0
sbssg25
S'G \xf5-\xcc\xc7\x15[\xfee\x92\x9b\x1e\xfb\xdd\xcb'
p339
ssS'apps_administrator_admin'
p340
(dp341
g6
(dp342
g8
I0
sg9
S'apps_administrator_admin.html'
p343
sg11
S'apps/administrator/admin'
p344
sg13
g14
(g15
g16
NtRp345
(dp346
g19
I1
sg20
I0
sg21
I3
sg22
I0
sg23
I0
sg24
I0
sbssg25
S'\xe7\x8e\x1b\xa8_Q=\x99\xe3^\xa7\xf5\xa34\x1f\xeb'
p347
ssS'urls_local'
p348
(dp349
g6
(dp350
g8
I0
sg9
S'urls_local.html'
p351
sg11
S'urls/local'
p352
sg13
g14
(g15
g16
NtRp353
(dp354
g19
I1
sg20
I0
sg21
I6
sg22
I0
sg23
I0
sg24
I0
sbssg25
S'JK\x0c\x01P\xb7o\xf8\xc9\x13\x91\x11\x9d\xda\x93\x97'
p355
ssS'apps_photo_manager_tests_general'
p356
(dp357
g6
(dp358
S'par'
p359
I0
sS'html_filename'
p360
S'apps_photo_manager_tests_general.html'
p361
sS'name'
p362
S'apps/photo_manager/tests/general'
p363
sS'nums'
p364
g14
(g15
g16
NtRp365
(dp366
g19
I1
sg20
I0
sg21
I16
sg22
I0
sg23
I1
sg24
I0
sbssg25
S'\xc8u=\x9d\x1aY])\xfe\xc4\x02}\x85e72'
p367
ssS'apps_administrator_migrations_0002_auto__add_field_settings_enable_download'
p368
(dp369
g6
(dp370
g8
I0
sg9
S'apps_administrator_migrations_0002_auto__add_field_settings_enable_download.html'
p371
sg11
S'apps/administrator/migrations/0002_auto__add_field_settings_enable_download'
p372
sg13
g14
(g15
g16
NtRp373
(dp374
g19
I1
sg20
I0
sg21
I11
sg22
I0
sg23
I1
sg24
I0
sbssg25
S'\xca\xcb\x8b\xff?\x10+\xe7O2\xebk\xc9\x13^H'
p375
ssS'apps_profiles_views'
p376
(dp377
g6
(dp378
g8
I0
sg9
S'apps_profiles_views.html'
p379
sg11
S'apps/profiles/views'
p380
sg13
g14
(g15
g16
NtRp381
(dp382
g19
I1
sg20
I0
sg21
I48
sg22
I0
sg23
I37
sg24
I0
sbssg25
S'\xb6\xa0\xf6\xf9\x05\xd4(\xa5r\xe6i4a\xc5\xf0<'
p383
ssS'apps_administrator_ajax'
p384
(dp385
g6
(dp386
g8
I0
sg9
S'apps_administrator_ajax.html'
p387
sg11
S'apps/administrator/ajax'
p388
sg13
g14
(g15
g16
NtRp389
(dp390
g19
I1
sg20
I0
sg21
I17
sg22
I0
sg23
I14
sg24
I0
sbssg25
S')\xece<=.\x1d<^.;l\x86\xa2\x1d\xbd'
p391
ssS'apps_profiles_forms'
p392
(dp393
g6
(dp394
g8
I0
sg9
S'apps_profiles_forms.html'
p395
sg11
S'apps/profiles/forms'
p396
sg13
g14
(g15
g16
NtRp397
(dp398
g19
I1
sg20
I0
sg21
I5
sg22
I0
sg23
I0
sg24
I0
sbssg25
S'\t\x08\xbd\xb9ku\xd8\x86E;/\x12\xe5Zm\xb4'
p399
ssS'apps_photo_manager_forms'
p400
(dp401
g6
(dp402
g8
I0
sg9
S'apps_photo_manager_forms.html'
p403
sg11
S'apps/photo_manager/forms'
p404
sg13
g14
(g15
g16
NtRp405
(dp406
g19
I1
sg20
I0
sg21
I13
sg22
I0
sg23
I0
sg24
I0
sbssg25
S'\x1d\x8f_eX?\xcb\xea@\x7f\x9f\xd9\xbf\xbaOw'
p407
ssS'apps_photo_manager_feeds'
p408
(dp409
g6
(dp410
g8
I0
sg9
S'apps_photo_manager_feeds.html'
p411
sg11
S'apps/photo_manager/feeds'
p412
sg13
g14
(g15
g16
NtRp413
(dp414
g19
I1
sg20
I0
sg21
I25
sg22
I0
sg23
I6
sg24
I0
sbssg25
S'\xa7\xa2\x1f(g\xff\xac\xd5q|N\xf53\xe8\x9bo'
p415
ssS'apps_photo_manager_migrations_0001_initial'
p416
(dp417
g6
(dp418
g8
I0
sg9
S'apps_photo_manager_migrations_0001_initial.html'
p419
sg11
S'apps/photo_manager/migrations/0001_initial'
p420
sg13
g14
(g15
g16
NtRp421
(dp422
g19
I1
sg20
I0
sg21
I15
sg22
I0
sg23
I2
sg24
I0
sbssg25
S'L\xc3G%\x96tt\x08\x81\x12\xf2\x90\x9c\x91\x02\xc5'
p423
ssS'apps_photo_manager_migrations___init__'
p424
(dp425
g6
(dp426
g8
I0
sg9
S'apps_photo_manager_migrations___init__.html'
p427
sg11
S'apps/photo_manager/migrations/__init__'
p428
sg13
g14
(g15
g16
NtRp429
(dp430
g19
I1
sg20
I0
sg21
I0
sg22
I0
sg23
I0
sg24
I0
sbssg25
S'\xb0\xc8pN\xaf>\xa0\xbaz\x144\xe0A9\xb8?'
p431
ssS'apps_photo_manager_migrations_0004_auto__add_field_photo_deleted'
p432
(dp433
g6
(dp434
g8
I0
sg9
S'apps_photo_manager_migrations_0004_auto__add_field_photo_deleted.html'
p435
sg11
S'apps/photo_manager/migrations/0004_auto__add_field_photo_deleted'
p436
sg13
g14
(g15
g16
NtRp437
(dp438
g19
I1
sg20
I0
sg21
I11
sg22
I0
sg23
I1
sg24
I0
sbssg25
S'=\x92\xa2\xd6\xb6\x17\tC\x91\x03\xc3\xbb\x91\x90\xe4\x00'
p439
ssS'conf___init__'
p440
(dp441
g6
(dp442
g8
I0
sg9
S'conf___init__.html'
p443
sg11
S'conf/__init__'
p444
sg13
g14
(g15
g16
NtRp445
(dp446
g19
I1
sg20
I0
sg21
I0
sg22
I0
sg23
I0
sg24
I0
sbssg25
S'\xb0\xc8pN\xaf>\xa0\xbaz\x144\xe0A9\xb8?'
p447
ssS'apps_administrator_migrations_0001_initial'
p448
(dp449
g6
(dp450
g8
I0
sg9
S'apps_administrator_migrations_0001_initial.html'
p451
sg11
S'apps/administrator/migrations/0001_initial'
p452
sg13
g14
(g15
g16
NtRp453
(dp454
g19
I1
sg20
I0
sg21
I12
sg22
I0
sg23
I1
sg24
I0
sbssg25
S'$\xeb\x1c\xa1\x92n\x03|\xbaW1OA\xd0\xbe\xf1'
p455
ssS'apps_administrator_forms'
p456
(dp457
g6
(dp458
g8
I0
sg9
S'apps_administrator_forms.html'
p459
sg11
S'apps/administrator/forms'
p460
sg13
g14
(g15
g16
NtRp461
(dp462
g19
I1
sg20
I0
sg21
I10
sg22
I0
sg23
I0
sg24
I0
sbssg25
S'\x9f8\x0cW\xadR\xba-M\xb5\x82\x8d\x9a\\Y\xbf'
p463
sssS'version'
p464
S'3.5.1'
p465
sS'settings'
p466
S"\x18\\\xc0\xf9'\xe3\x17\xc0\xf7'v\xb2\xbd\x00\xadL"
p467
sS'format'
p468
I1
s.