(dp1
S'files'
p2
(dp3
S'apps_photo_manager_tasks'
p4
(dp5
S'index'
p6
(dp7
S'par'
p8
I0
sS'html_filename'
p9
S'apps_photo_manager_tasks.html'
p10
sS'name'
p11
S'apps/photo_manager/tasks'
p12
sS'nums'
p13
ccopy_reg
_reconstructor
p14
(ccoverage.results
Numbers
p15
c__builtin__
object
p16
NtRp17
(dp18
S'n_files'
p19
I1
sS'n_branches'
p20
I0
sS'n_statements'
p21
I10
sS'n_excluded'
p22
I0
sS'n_missing'
p23
I4
sS'n_missing_branches'
p24
I0
sbssS'hash'
p25
S'a\xd3bteF~\x8c\xe3\xfb\xaeD\xe1\xd5\xe6\x8d'
p26
ssS'apps_administrator_models'
p27
(dp28
S'index'
p29
(dp30
S'par'
p31
I0
sS'html_filename'
p32
S'apps_administrator_models.html'
p33
sS'name'
p34
S'apps/administrator/models'
p35
sS'nums'
p36
g14
(g15
g16
NtRp37
(dp38
g19
I1
sg20
I0
sg21
I6
sg22
I0
sg23
I1
sg24
I0
sbssS'hash'
p39
S'\x83\xd9\xcb\x10\xa1k\x03\xf1\xe3\xd2@Fb\x94\xdb\xa3'
p40
ssS'apps_profiles___init__'
p41
(dp42
g29
(dp43
g31
I0
sg32
S'apps_profiles___init__.html'
p44
sg34
S'apps/profiles/__init__'
p45
sg36
g14
(g15
g16
NtRp46
(dp47
g19
I1
sg20
I0
sg21
I0
sg22
I0
sg23
I0
sg24
I0
sbssg39
S'\xb0\xc8pN\xaf>\xa0\xbaz\x144\xe0A9\xb8?'
p48
ssS'apps_photo_manager_tests___init__'
p49
(dp50
g29
(dp51
S'par'
p52
I0
sS'html_filename'
p53
S'apps_photo_manager_tests___init__.html'
p54
sS'name'
p55
S'apps/photo_manager/tests/__init__'
p56
sS'nums'
p57
g14
(g15
g16
NtRp58
(dp59
g19
I1
sg20
I0
sg21
I2
sg22
I0
sg23
I0
sg24
I0
sbssg39
S'`\x0f\\\xc9\xca\xfa%\xef\x13\xb8\xe1\xac\xcbS^\n'
p60
ssS'apps_photo_manager_api'
p61
(dp62
g6
(dp63
g8
I0
sg9
S'apps_photo_manager_api.html'
p64
sg11
S'apps/photo_manager/api'
p65
sg13
g14
(g15
g16
NtRp66
(dp67
g19
I1
sg20
I0
sg21
I60
sg22
I0
sg23
I25
sg24
I0
sbssg25
S'\xe73G\xed7\x1b\xf4\xca\x90\x18\xb2\xeb\xac\xa6\x8e\xbb'
p68
ssS'manage'
p69
(dp70
g29
(dp71
g31
I0
sg32
S'manage.html'
p72
sg34
g69
sg36
g14
(g15
g16
NtRp73
(dp74
g19
I1
sg20
I0
sg21
I6
sg22
I0
sg23
I0
sg24
I0
sbssg39
S'-\x0b\x1arF\x1bvK\x15\xc4\x87\xb6\x07Q\xf8\xba'
p75
ssS'apps_administrator_urls'
p76
(dp77
g6
(dp78
g8
I0
sg9
S'apps_administrator_urls.html'
p79
sg11
S'apps/administrator/urls'
p80
sg13
g14
(g15
g16
NtRp81
(dp82
g19
I1
sg20
I0
sg21
I3
sg22
I0
sg23
I0
sg24
I0
sbssg25
S'\x86\r{;3\x88\xcaH\xedVJ\xc4\x96\xa3\xf4B'
p83
ssS'apps_administrator_jobs'
p84
(dp85
S'index'
p86
(dp87
S'par'
p88
I0
sS'html_filename'
p89
S'apps_administrator_jobs.html'
p90
sS'name'
p91
S'apps/administrator/jobs'
p92
sS'nums'
p93
g14
(g15
g16
NtRp94
(dp95
g19
I1
sg20
I0
sg21
I13
sg22
I0
sg23
I11
sg24
I0
sbssS'hash'
p96
S't\xddR\xec\n\xbc\xd0y\xb6|\x87i8u\xcf\x1e'
p97
ssS'apps_photo_manager_views'
p98
(dp99
g6
(dp100
g8
I0
sg9
S'apps_photo_manager_views.html'
p101
sg11
S'apps/photo_manager/views'
p102
sg13
g14
(g15
g16
NtRp103
(dp104
g19
I1
sg20
I0
sg21
I132
sg22
I0
sg23
I97
sg24
I0
sbssg25
S'|7\xe6zr\x96/\xa32\xd2\x96+C0\xea\xcd'
p105
ssS'settings___init__'
p106
(dp107
g29
(dp108
g31
I0
sg32
S'settings___init__.html'
p109
sg34
S'settings/__init__'
p110
sg36
g14
(g15
g16
NtRp111
(dp112
g19
I1
sg20
I0
sg21
I0
sg22
I0
sg23
I0
sg24
I0
sbssg39
S'\xb0\xc8pN\xaf>\xa0\xbaz\x144\xe0A9\xb8?'
p113
ssS'apps_profiles_choices'
p114
(dp115
g29
(dp116
g31
I0
sg32
S'apps_profiles_choices.html'
p117
sg34
S'apps/profiles/choices'
p118
sg36
g14
(g15
g16
NtRp119
(dp120
g19
I1
sg20
I0
sg21
I1
sg22
I0
sg23
I0
sg24
I0
sbssg39
S'\x8e\xb4\xc0\t\xd4\xf5FJWIp\xdcv\x99\x1b\x14'
p121
ssS'urls___init__'
p122
(dp123
g6
(dp124
g8
I0
sg9
S'urls___init__.html'
p125
sg11
S'urls/__init__'
p126
sg13
g14
(g15
g16
NtRp127
(dp128
g19
I1
sg20
I0
sg21
I0
sg22
I0
sg23
I0
sg24
I0
sbssg25
S'\xb0\xc8pN\xaf>\xa0\xbaz\x144\xe0A9\xb8?'
p129
ssS'apps_photo_manager___init__'
p130
(dp131
g29
(dp132
g31
I0
sg32
S'apps_photo_manager___init__.html'
p133
sg34
S'apps/photo_manager/__init__'
p134
sg36
g14
(g15
g16
NtRp135
(dp136
g19
I1
sg20
I0
sg21
I0
sg22
I0
sg23
I0
sg24
I0
sbssg39
S'\xb0\xc8pN\xaf>\xa0\xbaz\x144\xe0A9\xb8?'
p137
ssS'apps_administrator_tests___init__'
p138
(dp139
g86
(dp140
g88
I0
sg89
S'apps_administrator_tests___init__.html'
p141
sg91
S'apps/administrator/tests/__init__'
p142
sg93
g14
(g15
g16
NtRp143
(dp144
g19
I1
sg20
I0
sg21
I0
sg22
I0
sg23
I0
sg24
I0
sbssg96
S'\xb0\xc8pN\xaf>\xa0\xbaz\x144\xe0A9\xb8?'
p145
ssS'apps_photo_manager_admin'
p146
(dp147
g6
(dp148
g8
I0
sg9
S'apps_photo_manager_admin.html'
p149
sg11
S'apps/photo_manager/admin'
p150
sg13
g14
(g15
g16
NtRp151
(dp152
g19
I1
sg20
I0
sg21
I9
sg22
I0
sg23
I0
sg24
I0
sbssg25
S'\xdc**S&|\xf5\x93\x88&W\xa5"?\x1fY'
p153
ssS'apps_photo_manager_tests_factories'
p154
(dp155
g29
(dp156
g31
I0
sg32
S'apps_photo_manager_tests_factories.html'
p157
sg34
S'apps/photo_manager/tests/factories'
p158
sg36
g14
(g15
g16
NtRp159
(dp160
g19
I1
sg20
I0
sg21
I8
sg22
I0
sg23
I0
sg24
I0
sbssg39
S'\x8es\x0f\xae\xac\x95\x02\xe3\xbbq\x15\xff\xe00 \x89'
p161
ssS'apps_photo_manager_tests_live'
p162
(dp163
g29
(dp164
g88
I0
sg89
S'apps_photo_manager_tests_live.html'
p165
sg91
S'apps/photo_manager/tests/live'
p166
sg93
g14
(g15
g16
NtRp167
(dp168
g19
I1
sg20
I0
sg21
I21
sg22
I0
sg23
I0
sg24
I0
sbssg39
S'J\xb3\x8cV\xf1_\x0b\xf6\x1bk\x8c\x1fo\x95\x8a\xc2'
p169
ssS'apps_administrator_views'
p170
(dp171
g6
(dp172
g8
I0
sg9
S'apps_administrator_views.html'
p173
sg11
S'apps/administrator/views'
p174
sg13
g14
(g15
g16
NtRp175
(dp176
g19
I1
sg20
I0
sg21
I166
sg22
I0
sg23
I127
sg24
I0
sbssg25
S'\x82\xccw\x9bL\xb2Q\x02\xd1G\x99%A$\xe6\xf2'
p177
ssS'conf_defaults'
p178
(dp179
g6
(dp180
g8
I0
sg9
S'conf_defaults.html'
p181
sg11
S'conf/defaults'
p182
sg13
g14
(g15
g16
NtRp183
(dp184
g19
I1
sg20
I0
sg21
I1
sg22
I0
sg23
I0
sg24
I0
sbssg25
S'MMG/sQ\xebl\xde9\xb6\tG\x83\x94g'
p185
ssS'apps_photo_manager_feeds'
p186
(dp187
g6
(dp188
g8
I0
sg9
S'apps_photo_manager_feeds.html'
p189
sg11
S'apps/photo_manager/feeds'
p190
sg13
g14
(g15
g16
NtRp191
(dp192
g19
I1
sg20
I0
sg21
I25
sg22
I0
sg23
I7
sg24
I0
sbssg25
S'\x96\x9bo\x11\x93tz+U(\x96\xcd\xd17\x99N'
p193
ssS'apps_profiles_admin'
p194
(dp195
g6
(dp196
g8
I0
sg9
S'apps_profiles_admin.html'
p197
sg11
S'apps/profiles/admin'
p198
sg13
g14
(g15
g16
NtRp199
(dp200
g19
I1
sg20
I0
sg21
I14
sg22
I0
sg23
I0
sg24
I0
sbssg25
S'\x8f[\xcc\x1b\xdbE\r\x9b(\xf9\x1fO-\xa1\xfc,'
p201
ssS'apps_photo_manager_tests_models'
p202
(dp203
g29
(dp204
S'par'
p205
I0
sS'html_filename'
p206
S'apps_photo_manager_tests_models.html'
p207
sS'name'
p208
S'apps/photo_manager/tests/models'
p209
sS'nums'
p210
g14
(g15
g16
NtRp211
(dp212
g19
I1
sg20
I0
sg21
I21
sg22
I0
sg23
I0
sg24
I0
sbssg39
S',n|\xbd*\r\xb2>\xab\x0b\x9d\x90\xeb\xdf\xbe '
p213
ssS'settings_local'
p214
(dp215
g29
(dp216
g31
I0
sg32
S'settings_local.html'
p217
sg34
S'settings/local'
p218
sg36
g14
(g15
g16
NtRp219
(dp220
g19
I1
sg20
I0
sg21
I19
sg22
I0
sg23
I0
sg24
I0
sbssg39
S'v\xc1\xc29\x81\x0bW\xc5\xcc\xab\xda\xfb\xa1\xc3\xd2\x9d'
p221
ssS'apps_administrator_context_processors'
p222
(dp223
g6
(dp224
g88
I0
sg89
S'apps_administrator_context_processors.html'
p225
sg91
S'apps/administrator/context_processors'
p226
sg93
g14
(g15
g16
NtRp227
(dp228
g19
I1
sg20
I0
sg21
I6
sg22
I0
sg23
I0
sg24
I0
sbssg25
S'\xaa\xa4\xec\xbd\xde\xb6\xc6\xaa\xec\x1b[\xb2\xb1;Z_'
p229
ssS'apps_photo_manager_urls'
p230
(dp231
g6
(dp232
g8
I0
sg9
S'apps_photo_manager_urls.html'
p233
sg11
S'apps/photo_manager/urls'
p234
sg13
g14
(g15
g16
NtRp235
(dp236
g19
I1
sg20
I0
sg21
I12
sg22
I0
sg23
I0
sg24
I0
sbssg25
S'\x14\xe2\xcai\x9c$\xc3\xe7rC\xa3\xc3\xce\x906\xfb'
p237
ssS'apps_photo_manager_context_processors'
p238
(dp239
g6
(dp240
g8
I0
sg9
S'apps_photo_manager_context_processors.html'
p241
sg11
S'apps/photo_manager/context_processors'
p242
sg13
g14
(g15
g16
NtRp243
(dp244
g19
I1
sg20
I0
sg21
I13
sg22
I0
sg23
I0
sg24
I0
sbssg25
S'\xf9%\xd6\x05\xe3\xb0F\xb4g\x82Z\xe8w\x95\xbbM'
p245
ssS'apps_photo_manager_managers'
p246
(dp247
g29
(dp248
g52
I0
sg53
S'apps_photo_manager_managers.html'
p249
sg55
S'apps/photo_manager/managers'
p250
sg57
g14
(g15
g16
NtRp251
(dp252
g19
I1
sg20
I0
sg21
I4
sg22
I0
sg23
I0
sg24
I0
sbssg39
S'y?\xe79\xb7\x95l\xd7\xe4J\x04g\xffW\r\xe5'
p253
ssS'apps_administrator_admin'
p254
(dp255
g6
(dp256
g8
I0
sg9
S'apps_administrator_admin.html'
p257
sg11
S'apps/administrator/admin'
p258
sg13
g14
(g15
g16
NtRp259
(dp260
g19
I1
sg20
I0
sg21
I3
sg22
I0
sg23
I0
sg24
I0
sbssg25
S'\xe7\x8e\x1b\xa8_Q=\x99\xe3^\xa7\xf5\xa34\x1f\xeb'
p261
ssS'apps_administrator_tasks'
p262
(dp263
g6
(dp264
g8
I0
sg9
S'apps_administrator_tasks.html'
p265
sg11
S'apps/administrator/tasks'
p266
sg13
g14
(g15
g16
NtRp267
(dp268
g19
I1
sg20
I0
sg21
I10
sg22
I0
sg23
I4
sg24
I0
sbssg25
S'a\xd3bteF~\x8c\xe3\xfb\xaeD\xe1\xd5\xe6\x8d'
p269
ssS'apps_administrator___init__'
p270
(dp271
g29
(dp272
g31
I0
sg32
S'apps_administrator___init__.html'
p273
sg34
S'apps/administrator/__init__'
p274
sg36
g14
(g15
g16
NtRp275
(dp276
g19
I1
sg20
I0
sg21
I0
sg22
I0
sg23
I0
sg24
I0
sbssg39
S'\xb0\xc8pN\xaf>\xa0\xbaz\x144\xe0A9\xb8?'
p277
ssS'apps_administrator_tests_factories'
p278
(dp279
g86
(dp280
g88
I0
sg89
S'apps_administrator_tests_factories.html'
p281
sg91
S'apps/administrator/tests/factories'
p282
sg93
g14
(g15
g16
NtRp283
(dp284
g19
I1
sg20
I0
sg21
I6
sg22
I0
sg23
I0
sg24
I0
sbssg96
S'\xf6\xae\x9f\t_\xe5\xd3\x82\xb1\xd6\xea\xf8\x11\xe0\xdd\x19'
p285
ssS'settings_common'
p286
(dp287
g29
(dp288
g31
I0
sg32
S'settings_common.html'
p289
sg34
S'settings/common'
p290
sg36
g14
(g15
g16
NtRp291
(dp292
g19
I1
sg20
I0
sg21
I25
sg22
I0
sg23
I0
sg24
I0
sbssg39
S'\x83>\xca\x95\xb0zH\xb1\xc3\xa8\x0e>\xcd\xe5\x14\xfe'
p293
ssS'apps_profiles_models'
p294
(dp295
g29
(dp296
g31
I0
sg32
S'apps_profiles_models.html'
p297
sg34
S'apps/profiles/models'
p298
sg36
g14
(g15
g16
NtRp299
(dp300
g19
I1
sg20
I0
sg21
I9
sg22
I0
sg23
I0
sg24
I0
sbssg39
S'\xfa\x0cD\x83\x9b\xc2T\x14c\x87\xc6\x19\x99kN\x07'
p301
ssS'apps_administrator_ajax'
p302
(dp303
g86
(dp304
g88
I0
sg89
S'apps_administrator_ajax.html'
p305
sg91
S'apps/administrator/ajax'
p306
sg93
g14
(g15
g16
NtRp307
(dp308
g19
I1
sg20
I0
sg21
I17
sg22
I0
sg23
I14
sg24
I0
sbssg96
S')\xece<=.\x1d<^.;l\x86\xa2\x1d\xbd'
p309
ssS'urls_local'
p310
(dp311
g6
(dp312
g8
I0
sg9
S'urls_local.html'
p313
sg11
S'urls/local'
p314
sg13
g14
(g15
g16
NtRp315
(dp316
g19
I1
sg20
I0
sg21
I6
sg22
I0
sg23
I0
sg24
I0
sbssg25
S'JK\x0c\x01P\xb7o\xf8\xc9\x13\x91\x11\x9d\xda\x93\x97'
p317
ssS'apps_profiles_views'
p318
(dp319
g86
(dp320
g88
I0
sg89
S'apps_profiles_views.html'
p321
sg91
S'apps/profiles/views'
p322
sg93
g14
(g15
g16
NtRp323
(dp324
g19
I1
sg20
I0
sg21
I48
sg22
I0
sg23
I37
sg24
I0
sbssg96
S'\xb6\xa0\xf6\xf9\x05\xd4(\xa5r\xe6i4a\xc5\xf0<'
p325
ssS'conf_environment'
p326
(dp327
g29
(dp328
g31
I0
sg32
S'conf_environment.html'
p329
sg34
S'conf/environment'
p330
sg36
g14
(g15
g16
NtRp331
(dp332
g19
I1
sg20
I0
sg21
I15
sg22
I0
sg23
I0
sg24
I0
sbssg39
S'\xd4w\x99qt\xad5\x9aKP\x1a\xb7\x14\x16\xca\xbc'
p333
ssS'apps_profiles_forms'
p334
(dp335
g86
(dp336
g88
I0
sg89
S'apps_profiles_forms.html'
p337
sg91
S'apps/profiles/forms'
p338
sg93
g14
(g15
g16
NtRp339
(dp340
g19
I1
sg20
I0
sg21
I5
sg22
I0
sg23
I0
sg24
I0
sbssg96
S'\t\x08\xbd\xb9ku\xd8\x86E;/\x12\xe5Zm\xb4'
p341
ssS'apps_photo_manager_forms'
p342
(dp343
g6
(dp344
g8
I0
sg9
S'apps_photo_manager_forms.html'
p345
sg11
S'apps/photo_manager/forms'
p346
sg13
g14
(g15
g16
NtRp347
(dp348
g19
I1
sg20
I0
sg21
I13
sg22
I0
sg23
I0
sg24
I0
sbssg25
S'\x1d\x8f_eX?\xcb\xea@\x7f\x9f\xd9\xbf\xbaOw'
p349
ssS'apps_photo_manager_models'
p350
(dp351
g29
(dp352
g52
I0
sg53
S'apps_photo_manager_models.html'
p353
sg55
S'apps/photo_manager/models'
p354
sg57
g14
(g15
g16
NtRp355
(dp356
g19
I1
sg20
I0
sg21
I117
sg22
I0
sg23
I58
sg24
I0
sbssg39
S'\x07\\"\xa1_\x9e\xf3[b\x91\xc89\xe0\x91\xe3\x15'
p357
ssS'conf___init__'
p358
(dp359
g29
(dp360
g31
I0
sg32
S'conf___init__.html'
p361
sg34
S'conf/__init__'
p362
sg36
g14
(g15
g16
NtRp363
(dp364
g19
I1
sg20
I0
sg21
I0
sg22
I0
sg23
I0
sg24
I0
sbssg39
S'\xb0\xc8pN\xaf>\xa0\xbaz\x144\xe0A9\xb8?'
p365
ssS'apps_administrator_forms'
p366
(dp367
g6
(dp368
g8
I0
sg9
S'apps_administrator_forms.html'
p369
sg11
S'apps/administrator/forms'
p370
sg13
g14
(g15
g16
NtRp371
(dp372
g19
I1
sg20
I0
sg21
I10
sg22
I0
sg23
I0
sg24
I0
sbssg25
S'\x9f8\x0cW\xadR\xba-M\xb5\x82\x8d\x9a\\Y\xbf'
p373
sssS'version'
p374
S'3.5.1'
p375
sS'settings'
p376
S'\x94A\xeaf\x87\xeb\xf8\xc2\xe1\x12\xbe7|\xaf\xa3\xf7'
p377
sS'format'
p378
I1
s.