(dp1
S'files'
p2
(dp3
S'apps_photo_manager_tasks'
p4
(dp5
S'index'
p6
(dp7
S'par'
p8
I0
sS'html_filename'
p9
S'apps_photo_manager_tasks.html'
p10
sS'name'
p11
S'apps/photo_manager/tasks'
p12
sS'nums'
p13
ccopy_reg
_reconstructor
p14
(ccoverage.results
Numbers
p15
c__builtin__
object
p16
NtRp17
(dp18
S'n_files'
p19
I1
sS'n_branches'
p20
I0
sS'n_statements'
p21
I10
sS'n_excluded'
p22
I0
sS'n_missing'
p23
I4
sS'n_missing_branches'
p24
I0
sbssS'hash'
p25
S'a\xd3bteF~\x8c\xe3\xfb\xaeD\xe1\xd5\xe6\x8d'
p26
ssS'conf_environment'
p27
(dp28
S'index'
p29
(dp30
S'par'
p31
I0
sS'html_filename'
p32
S'conf_environment.html'
p33
sS'name'
p34
S'conf/environment'
p35
sS'nums'
p36
g14
(g15
g16
NtRp37
(dp38
g19
I1
sg20
I0
sg21
I15
sg22
I0
sg23
I0
sg24
I0
sbssS'hash'
p39
S'\xd4w\x99qt\xad5\x9aKP\x1a\xb7\x14\x16\xca\xbc'
p40
ssS'apps_administrator_models'
p41
(dp42
g29
(dp43
g31
I0
sg32
S'apps_administrator_models.html'
p44
sg34
S'apps/administrator/models'
p45
sg36
g14
(g15
g16
NtRp46
(dp47
g19
I1
sg20
I0
sg21
I6
sg22
I0
sg23
I1
sg24
I0
sbssg39
S'\x83\xd9\xcb\x10\xa1k\x03\xf1\xe3\xd2@Fb\x94\xdb\xa3'
p48
ssS'apps_profiles___init__'
p49
(dp50
g29
(dp51
g31
I0
sg32
S'apps_profiles___init__.html'
p52
sg34
S'apps/profiles/__init__'
p53
sg36
g14
(g15
g16
NtRp54
(dp55
g19
I1
sg20
I0
sg21
I0
sg22
I0
sg23
I0
sg24
I0
sbssg39
S'\xb0\xc8pN\xaf>\xa0\xbaz\x144\xe0A9\xb8?'
p56
ssS'apps_photo_manager_tests___init__'
p57
(dp58
g29
(dp59
S'par'
p60
I0
sS'html_filename'
p61
S'apps_photo_manager_tests___init__.html'
p62
sS'name'
p63
S'apps/photo_manager/tests/__init__'
p64
sS'nums'
p65
g14
(g15
g16
NtRp66
(dp67
g19
I1
sg20
I0
sg21
I2
sg22
I0
sg23
I0
sg24
I0
sbssg39
S'`\x0f\\\xc9\xca\xfa%\xef\x13\xb8\xe1\xac\xcbS^\n'
p68
ssS'apps_photo_manager_api'
p69
(dp70
g6
(dp71
S'par'
p72
I0
sS'html_filename'
p73
S'apps_photo_manager_api.html'
p74
sS'name'
p75
S'apps/photo_manager/api'
p76
sS'nums'
p77
g14
(g15
g16
NtRp78
(dp79
g19
I1
sg20
I0
sg21
I50
sg22
I0
sg23
I23
sg24
I0
sbssg25
S'\x07\xf9\x99\xf1q\xfa\x1b"\x8f\xd5V`!\x01d\xcc'
p80
ssS'manage'
p81
(dp82
g29
(dp83
g31
I0
sg32
S'manage.html'
p84
sg34
g81
sg36
g14
(g15
g16
NtRp85
(dp86
g19
I1
sg20
I0
sg21
I6
sg22
I0
sg23
I0
sg24
I0
sbssg39
S'-\x0b\x1arF\x1bvK\x15\xc4\x87\xb6\x07Q\xf8\xba'
p87
ssS'apps_administrator_urls'
p88
(dp89
g6
(dp90
g8
I0
sg9
S'apps_administrator_urls.html'
p91
sg11
S'apps/administrator/urls'
p92
sg13
g14
(g15
g16
NtRp93
(dp94
g19
I1
sg20
I0
sg21
I3
sg22
I0
sg23
I0
sg24
I0
sbssg25
S'\x86\r{;3\x88\xcaH\xedVJ\xc4\x96\xa3\xf4B'
p95
ssS'apps_administrator_jobs'
p96
(dp97
S'index'
p98
(dp99
S'par'
p100
I0
sS'html_filename'
p101
S'apps_administrator_jobs.html'
p102
sS'name'
p103
S'apps/administrator/jobs'
p104
sS'nums'
p105
g14
(g15
g16
NtRp106
(dp107
g19
I1
sg20
I0
sg21
I13
sg22
I0
sg23
I11
sg24
I0
sbssS'hash'
p108
S't\xddR\xec\n\xbc\xd0y\xb6|\x87i8u\xcf\x1e'
p109
ssS'apps_photo_manager_views'
p110
(dp111
g6
(dp112
g72
I0
sg73
S'apps_photo_manager_views.html'
p113
sg75
S'apps/photo_manager/views'
p114
sg77
g14
(g15
g16
NtRp115
(dp116
g19
I1
sg20
I0
sg21
I112
sg22
I0
sg23
I89
sg24
I0
sbssg25
S'\xf8r\xd2XU\xee\xa9\xcd\x88\xbb\x9e\xa44jl\x08'
p117
ssS'apps_photo_manager_tests_live'
p118
(dp119
g29
(dp120
S'par'
p121
I0
sS'html_filename'
p122
S'apps_photo_manager_tests_live.html'
p123
sS'name'
p124
S'apps/photo_manager/tests/live'
p125
sS'nums'
p126
g14
(g15
g16
NtRp127
(dp128
g19
I1
sg20
I0
sg21
I26
sg22
I0
sg23
I0
sg24
I0
sbssg39
S'\xdc.\x02\xdb\x1a\x18\xf0N[\xaeY\xd5\x01\xfa\x9b['
p129
ssS'apps_profiles_choices'
p130
(dp131
g29
(dp132
g31
I0
sg32
S'apps_profiles_choices.html'
p133
sg34
S'apps/profiles/choices'
p134
sg36
g14
(g15
g16
NtRp135
(dp136
g19
I1
sg20
I0
sg21
I1
sg22
I0
sg23
I0
sg24
I0
sbssg39
S'\x8e\xb4\xc0\t\xd4\xf5FJWIp\xdcv\x99\x1b\x14'
p137
ssS'apps_profiles_models'
p138
(dp139
g29
(dp140
g31
I0
sg32
S'apps_profiles_models.html'
p141
sg34
S'apps/profiles/models'
p142
sg36
g14
(g15
g16
NtRp143
(dp144
g19
I1
sg20
I0
sg21
I9
sg22
I0
sg23
I0
sg24
I0
sbssg39
S'\xfa\x0cD\x83\x9b\xc2T\x14c\x87\xc6\x19\x99kN\x07'
p145
ssS'urls___init__'
p146
(dp147
g6
(dp148
g8
I0
sg9
S'urls___init__.html'
p149
sg11
S'urls/__init__'
p150
sg13
g14
(g15
g16
NtRp151
(dp152
g19
I1
sg20
I0
sg21
I0
sg22
I0
sg23
I0
sg24
I0
sbssg25
S'\xb0\xc8pN\xaf>\xa0\xbaz\x144\xe0A9\xb8?'
p153
ssS'apps_photo_manager___init__'
p154
(dp155
g29
(dp156
g31
I0
sg32
S'apps_photo_manager___init__.html'
p157
sg34
S'apps/photo_manager/__init__'
p158
sg36
g14
(g15
g16
NtRp159
(dp160
g19
I1
sg20
I0
sg21
I0
sg22
I0
sg23
I0
sg24
I0
sbssg39
S'\xb0\xc8pN\xaf>\xa0\xbaz\x144\xe0A9\xb8?'
p161
ssS'apps_administrator_tests___init__'
p162
(dp163
g98
(dp164
g100
I0
sg101
S'apps_administrator_tests___init__.html'
p165
sg103
S'apps/administrator/tests/__init__'
p166
sg105
g14
(g15
g16
NtRp167
(dp168
g19
I1
sg20
I0
sg21
I0
sg22
I0
sg23
I0
sg24
I0
sbssg108
S'\xb0\xc8pN\xaf>\xa0\xbaz\x144\xe0A9\xb8?'
p169
ssS'apps_photo_manager_admin'
p170
(dp171
g6
(dp172
g8
I0
sg9
S'apps_photo_manager_admin.html'
p173
sg11
S'apps/photo_manager/admin'
p174
sg13
g14
(g15
g16
NtRp175
(dp176
g19
I1
sg20
I0
sg21
I9
sg22
I0
sg23
I0
sg24
I0
sbssg25
S'\xdc**S&|\xf5\x93\x88&W\xa5"?\x1fY'
p177
ssS'apps_photo_manager_tests_factories'
p178
(dp179
g29
(dp180
g31
I0
sg32
S'apps_photo_manager_tests_factories.html'
p181
sg34
S'apps/photo_manager/tests/factories'
p182
sg36
g14
(g15
g16
NtRp183
(dp184
g19
I1
sg20
I0
sg21
I8
sg22
I0
sg23
I0
sg24
I0
sbssg39
S'\x8es\x0f\xae\xac\x95\x02\xe3\xbbq\x15\xff\xe00 \x89'
p185
ssS'settings___init__'
p186
(dp187
g29
(dp188
g31
I0
sg32
S'settings___init__.html'
p189
sg34
S'settings/__init__'
p190
sg36
g14
(g15
g16
NtRp191
(dp192
g19
I1
sg20
I0
sg21
I0
sg22
I0
sg23
I0
sg24
I0
sbssg39
S'\xb0\xc8pN\xaf>\xa0\xbaz\x144\xe0A9\xb8?'
p193
ssS'apps_administrator_views'
p194
(dp195
g6
(dp196
g72
I0
sg73
S'apps_administrator_views.html'
p197
sg75
S'apps/administrator/views'
p198
sg77
g14
(g15
g16
NtRp199
(dp200
g19
I1
sg20
I0
sg21
I166
sg22
I0
sg23
I127
sg24
I0
sbssg25
S"\x8b\xdf\xc5f\xc5'b\x0c\xa6\xe6\xb2\x061R\xcd\xa0"
p201
ssS'conf_defaults'
p202
(dp203
g6
(dp204
g8
I0
sg9
S'conf_defaults.html'
p205
sg11
S'conf/defaults'
p206
sg13
g14
(g15
g16
NtRp207
(dp208
g19
I1
sg20
I0
sg21
I1
sg22
I0
sg23
I0
sg24
I0
sbssg25
S'MMG/sQ\xebl\xde9\xb6\tG\x83\x94g'
p209
ssS'apps_photo_manager_models'
p210
(dp211
g29
(dp212
g60
I0
sg61
S'apps_photo_manager_models.html'
p213
sg63
S'apps/photo_manager/models'
p214
sg65
g14
(g15
g16
NtRp215
(dp216
g19
I1
sg20
I0
sg21
I117
sg22
I0
sg23
I58
sg24
I0
sbssg39
S'\x07\\"\xa1_\x9e\xf3[b\x91\xc89\xe0\x91\xe3\x15'
p217
ssS'apps_profiles_admin'
p218
(dp219
g6
(dp220
g8
I0
sg9
S'apps_profiles_admin.html'
p221
sg11
S'apps/profiles/admin'
p222
sg13
g14
(g15
g16
NtRp223
(dp224
g19
I1
sg20
I0
sg21
I14
sg22
I0
sg23
I0
sg24
I0
sbssg25
S'\x8f[\xcc\x1b\xdbE\r\x9b(\xf9\x1fO-\xa1\xfc,'
p225
ssS'apps_photo_manager_tests_models'
p226
(dp227
g29
(dp228
S'par'
p229
I0
sS'html_filename'
p230
S'apps_photo_manager_tests_models.html'
p231
sS'name'
p232
S'apps/photo_manager/tests/models'
p233
sS'nums'
p234
g14
(g15
g16
NtRp235
(dp236
g19
I1
sg20
I0
sg21
I21
sg22
I0
sg23
I0
sg24
I0
sbssg39
S',n|\xbd*\r\xb2>\xab\x0b\x9d\x90\xeb\xdf\xbe '
p237
ssS'settings_local'
p238
(dp239
g29
(dp240
g31
I0
sg32
S'settings_local.html'
p241
sg34
S'settings/local'
p242
sg36
g14
(g15
g16
NtRp243
(dp244
g19
I1
sg20
I0
sg21
I19
sg22
I0
sg23
I0
sg24
I0
sbssg39
S'v\xc1\xc29\x81\x0bW\xc5\xcc\xab\xda\xfb\xa1\xc3\xd2\x9d'
p245
ssS'apps_administrator_context_processors'
p246
(dp247
g6
(dp248
g100
I0
sg101
S'apps_administrator_context_processors.html'
p249
sg103
S'apps/administrator/context_processors'
p250
sg105
g14
(g15
g16
NtRp251
(dp252
g19
I1
sg20
I0
sg21
I6
sg22
I0
sg23
I0
sg24
I0
sbssg25
S'\xaa\xa4\xec\xbd\xde\xb6\xc6\xaa\xec\x1b[\xb2\xb1;Z_'
p253
ssS'apps_photo_manager_urls'
p254
(dp255
g6
(dp256
g72
I0
sg73
S'apps_photo_manager_urls.html'
p257
sg75
S'apps/photo_manager/urls'
p258
sg77
g14
(g15
g16
NtRp259
(dp260
g19
I1
sg20
I0
sg21
I11
sg22
I0
sg23
I0
sg24
I0
sbssg25
S'.\xa3\xa5Vq\x8d3\xd3JR\xff\xe6\x0b\x92m\xc3'
p261
ssS'apps_photo_manager_context_processors'
p262
(dp263
g6
(dp264
g72
I0
sg73
S'apps_photo_manager_context_processors.html'
p265
sg75
S'apps/photo_manager/context_processors'
p266
sg77
g14
(g15
g16
NtRp267
(dp268
g19
I1
sg20
I0
sg21
I6
sg22
I0
sg23
I0
sg24
I0
sbssg25
S'Y\xfa2\xb0U\xb2\xddb\x1f\x00\x0bB\xaa1ec'
p269
ssS'apps_photo_manager_managers'
p270
(dp271
g29
(dp272
g60
I0
sg61
S'apps_photo_manager_managers.html'
p273
sg63
S'apps/photo_manager/managers'
p274
sg65
g14
(g15
g16
NtRp275
(dp276
g19
I1
sg20
I0
sg21
I4
sg22
I0
sg23
I0
sg24
I0
sbssg39
S'y?\xe79\xb7\x95l\xd7\xe4J\x04g\xffW\r\xe5'
p277
ssS'apps_administrator_tasks'
p278
(dp279
g6
(dp280
g8
I0
sg9
S'apps_administrator_tasks.html'
p281
sg11
S'apps/administrator/tasks'
p282
sg13
g14
(g15
g16
NtRp283
(dp284
g19
I1
sg20
I0
sg21
I10
sg22
I0
sg23
I4
sg24
I0
sbssg25
S'a\xd3bteF~\x8c\xe3\xfb\xaeD\xe1\xd5\xe6\x8d'
p285
ssS'apps_administrator___init__'
p286
(dp287
g29
(dp288
g31
I0
sg32
S'apps_administrator___init__.html'
p289
sg34
S'apps/administrator/__init__'
p290
sg36
g14
(g15
g16
NtRp291
(dp292
g19
I1
sg20
I0
sg21
I0
sg22
I0
sg23
I0
sg24
I0
sbssg39
S'\xb0\xc8pN\xaf>\xa0\xbaz\x144\xe0A9\xb8?'
p293
ssS'apps_administrator_tests_factories'
p294
(dp295
g98
(dp296
g100
I0
sg101
S'apps_administrator_tests_factories.html'
p297
sg103
S'apps/administrator/tests/factories'
p298
sg105
g14
(g15
g16
NtRp299
(dp300
g19
I1
sg20
I0
sg21
I6
sg22
I0
sg23
I0
sg24
I0
sbssg108
S'\xf6\xae\x9f\t_\xe5\xd3\x82\xb1\xd6\xea\xf8\x11\xe0\xdd\x19'
p301
ssS'settings_common'
p302
(dp303
g29
(dp304
g72
I0
sg73
S'settings_common.html'
p305
sg75
S'settings/common'
p306
sg77
g14
(g15
g16
NtRp307
(dp308
g19
I1
sg20
I0
sg21
I25
sg22
I0
sg23
I0
sg24
I0
sbssg39
S'8!%\xd8\xcd\xae\xd8\x05\xb6\xfa\xd8\xf7\xebt\xec\x98'
p309
ssS'apps_administrator_admin'
p310
(dp311
g6
(dp312
g8
I0
sg9
S'apps_administrator_admin.html'
p313
sg11
S'apps/administrator/admin'
p314
sg13
g14
(g15
g16
NtRp315
(dp316
g19
I1
sg20
I0
sg21
I3
sg22
I0
sg23
I0
sg24
I0
sbssg25
S'\xe7\x8e\x1b\xa8_Q=\x99\xe3^\xa7\xf5\xa34\x1f\xeb'
p317
ssS'urls_local'
p318
(dp319
g6
(dp320
g8
I0
sg9
S'urls_local.html'
p321
sg11
S'urls/local'
p322
sg13
g14
(g15
g16
NtRp323
(dp324
g19
I1
sg20
I0
sg21
I6
sg22
I0
sg23
I0
sg24
I0
sbssg25
S'JK\x0c\x01P\xb7o\xf8\xc9\x13\x91\x11\x9d\xda\x93\x97'
p325
ssS'apps_profiles_views'
p326
(dp327
g98
(dp328
g100
I0
sg101
S'apps_profiles_views.html'
p329
sg103
S'apps/profiles/views'
p330
sg105
g14
(g15
g16
NtRp331
(dp332
g19
I1
sg20
I0
sg21
I48
sg22
I0
sg23
I37
sg24
I0
sbssg108
S'\xb6\xa0\xf6\xf9\x05\xd4(\xa5r\xe6i4a\xc5\xf0<'
p333
ssS'apps_administrator_ajax'
p334
(dp335
g98
(dp336
g100
I0
sg101
S'apps_administrator_ajax.html'
p337
sg103
S'apps/administrator/ajax'
p338
sg105
g14
(g15
g16
NtRp339
(dp340
g19
I1
sg20
I0
sg21
I17
sg22
I0
sg23
I14
sg24
I0
sbssg108
S')\xece<=.\x1d<^.;l\x86\xa2\x1d\xbd'
p341
ssS'apps_profiles_forms'
p342
(dp343
g98
(dp344
g100
I0
sg101
S'apps_profiles_forms.html'
p345
sg103
S'apps/profiles/forms'
p346
sg105
g14
(g15
g16
NtRp347
(dp348
g19
I1
sg20
I0
sg21
I5
sg22
I0
sg23
I0
sg24
I0
sbssg108
S'\t\x08\xbd\xb9ku\xd8\x86E;/\x12\xe5Zm\xb4'
p349
ssS'apps_photo_manager_forms'
p350
(dp351
g6
(dp352
g72
I0
sg73
S'apps_photo_manager_forms.html'
p353
sg75
S'apps/photo_manager/forms'
p354
sg77
g14
(g15
g16
NtRp355
(dp356
g19
I1
sg20
I0
sg21
I6
sg22
I0
sg23
I0
sg24
I0
sbssg25
S'\xfbZ\xfd\xf0\xe9\xca@^\xc7^P\x18\xb0UlV'
p357
ssS'apps_photo_manager_feeds'
p358
(dp359
g6
(dp360
g8
I0
sg9
S'apps_photo_manager_feeds.html'
p361
sg11
S'apps/photo_manager/feeds'
p362
sg13
g14
(g15
g16
NtRp363
(dp364
g19
I1
sg20
I0
sg21
I25
sg22
I0
sg23
I7
sg24
I0
sbssg25
S'\x96\x9bo\x11\x93tz+U(\x96\xcd\xd17\x99N'
p365
ssS'conf___init__'
p366
(dp367
g29
(dp368
g31
I0
sg32
S'conf___init__.html'
p369
sg34
S'conf/__init__'
p370
sg36
g14
(g15
g16
NtRp371
(dp372
g19
I1
sg20
I0
sg21
I0
sg22
I0
sg23
I0
sg24
I0
sbssg39
S'\xb0\xc8pN\xaf>\xa0\xbaz\x144\xe0A9\xb8?'
p373
ssS'apps_administrator_forms'
p374
(dp375
g6
(dp376
g72
I0
sg73
S'apps_administrator_forms.html'
p377
sg75
S'apps/administrator/forms'
p378
sg77
g14
(g15
g16
NtRp379
(dp380
g19
I1
sg20
I0
sg21
I5
sg22
I0
sg23
I0
sg24
I0
sbssg25
S'>\r\xc1\x19[\xc6\xb7\xbb\xbb)\x88\xb1\xd0\xdb\x95\x88'
p381
sssS'version'
p382
S'3.5.1'
p383
sS'settings'
p384
S'\x94A\xeaf\x87\xeb\xf8\xc2\xe1\x12\xbe7|\xaf\xa3\xf7'
p385
sS'format'
p386
I1
s.