(dp1
S'files'
p2
(dp3
S'apps_administrator_jobs'
p4
(dp5
S'index'
p6
(dp7
S'par'
p8
I0
sS'html_filename'
p9
S'apps_administrator_jobs.html'
p10
sS'name'
p11
S'apps/administrator/jobs'
p12
sS'nums'
p13
ccopy_reg
_reconstructor
p14
(ccoverage.results
Numbers
p15
c__builtin__
object
p16
NtRp17
(dp18
S'n_files'
p19
I1
sS'n_branches'
p20
I0
sS'n_statements'
p21
I13
sS'n_excluded'
p22
I0
sS'n_missing'
p23
I11
sS'n_missing_branches'
p24
I0
sbssS'hash'
p25
S't\xddR\xec\n\xbc\xd0y\xb6|\x87i8u\xcf\x1e'
p26
ssS'apps_administrator_models'
p27
(dp28
g6
(dp29
g8
I0
sg9
S'apps_administrator_models.html'
p30
sg11
S'apps/administrator/models'
p31
sg13
g14
(g15
g16
NtRp32
(dp33
g19
I1
sg20
I0
sg21
I6
sg22
I0
sg23
I1
sg24
I0
sbssg25
S'\x83\xd9\xcb\x10\xa1k\x03\xf1\xe3\xd2@Fb\x94\xdb\xa3'
p34
ssS'apps_profiles___init__'
p35
(dp36
g6
(dp37
g8
I0
sg9
S'apps_profiles___init__.html'
p38
sg11
S'apps/profiles/__init__'
p39
sg13
g14
(g15
g16
NtRp40
(dp41
g19
I1
sg20
I0
sg21
I0
sg22
I0
sg23
I0
sg24
I0
sbssg25
S'\xb0\xc8pN\xaf>\xa0\xbaz\x144\xe0A9\xb8?'
p42
ssS'apps_photo_manager_tests___init__'
p43
(dp44
g6
(dp45
g8
I0
sg9
S'apps_photo_manager_tests___init__.html'
p46
sg11
S'apps/photo_manager/tests/__init__'
p47
sg13
g14
(g15
g16
NtRp48
(dp49
g19
I1
sg20
I0
sg21
I2
sg22
I0
sg23
I0
sg24
I0
sbssg25
S'\x93\xcci\x9bNJ\x9cMsQs\x02g^\xedN'
p50
ssS'apps_photo_manager_api'
p51
(dp52
g6
(dp53
g8
I0
sg9
S'apps_photo_manager_api.html'
p54
sg11
S'apps/photo_manager/api'
p55
sg13
g14
(g15
g16
NtRp56
(dp57
g19
I1
sg20
I0
sg21
I60
sg22
I0
sg23
I25
sg24
I0
sbssg25
S'\xe73G\xed7\x1b\xf4\xca\x90\x18\xb2\xeb\xac\xa6\x8e\xbb'
p58
ssS'apps_administrator_context_processors'
p59
(dp60
g6
(dp61
g8
I0
sg9
S'apps_administrator_context_processors.html'
p62
sg11
S'apps/administrator/context_processors'
p63
sg13
g14
(g15
g16
NtRp64
(dp65
g19
I1
sg20
I0
sg21
I6
sg22
I0
sg23
I2
sg24
I0
sbssg25
S'\x88\x14\xed\xd4C\xfe\xae\x03\xc2\x1c\xa6m\xad\xdc\x92\xf9'
p66
ssS'apps_administrator_urls'
p67
(dp68
g6
(dp69
g8
I0
sg9
S'apps_administrator_urls.html'
p70
sg11
S'apps/administrator/urls'
p71
sg13
g14
(g15
g16
NtRp72
(dp73
g19
I1
sg20
I0
sg21
I3
sg22
I0
sg23
I0
sg24
I0
sbssg25
S'\x86\r{;3\x88\xcaH\xedVJ\xc4\x96\xa3\xf4B'
p74
ssS'apps_photo_manager_tasks'
p75
(dp76
g6
(dp77
g8
I0
sg9
S'apps_photo_manager_tasks.html'
p78
sg11
S'apps/photo_manager/tasks'
p79
sg13
g14
(g15
g16
NtRp80
(dp81
g19
I1
sg20
I0
sg21
I10
sg22
I0
sg23
I4
sg24
I0
sbssg25
S'a\xd3bteF~\x8c\xe3\xfb\xaeD\xe1\xd5\xe6\x8d'
p82
ssS'apps_photo_manager_views'
p83
(dp84
g6
(dp85
g8
I0
sg9
S'apps_photo_manager_views.html'
p86
sg11
S'apps/photo_manager/views'
p87
sg13
g14
(g15
g16
NtRp88
(dp89
g19
I1
sg20
I0
sg21
I132
sg22
I0
sg23
I83
sg24
I0
sbssg25
S'\x9c\x08\xd6\x939\xdeW\xb1\xb0a c&\x12\x0e\xcb'
p90
ssS'apps_profiles_choices'
p91
(dp92
g6
(dp93
g8
I0
sg9
S'apps_profiles_choices.html'
p94
sg11
S'apps/profiles/choices'
p95
sg13
g14
(g15
g16
NtRp96
(dp97
g19
I1
sg20
I0
sg21
I1
sg22
I0
sg23
I0
sg24
I0
sbssg25
S'\x8e\xb4\xc0\t\xd4\xf5FJWIp\xdcv\x99\x1b\x14'
p98
ssS'urls___init__'
p99
(dp100
g6
(dp101
g8
I0
sg9
S'urls___init__.html'
p102
sg11
S'urls/__init__'
p103
sg13
g14
(g15
g16
NtRp104
(dp105
g19
I1
sg20
I0
sg21
I0
sg22
I0
sg23
I0
sg24
I0
sbssg25
S'\xb0\xc8pN\xaf>\xa0\xbaz\x144\xe0A9\xb8?'
p106
ssS'apps_administrator_migrations___init__'
p107
(dp108
g6
(dp109
g8
I0
sg9
S'apps_administrator_migrations___init__.html'
p110
sg11
S'apps/administrator/migrations/__init__'
p111
sg13
g14
(g15
g16
NtRp112
(dp113
g19
I1
sg20
I0
sg21
I0
sg22
I0
sg23
I0
sg24
I0
sbssg25
S'\xb0\xc8pN\xaf>\xa0\xbaz\x144\xe0A9\xb8?'
p114
ssS'apps_photo_manager_admin'
p115
(dp116
g6
(dp117
g8
I0
sg9
S'apps_photo_manager_admin.html'
p118
sg11
S'apps/photo_manager/admin'
p119
sg13
g14
(g15
g16
NtRp120
(dp121
g19
I1
sg20
I0
sg21
I9
sg22
I0
sg23
I0
sg24
I0
sbssg25
S'\xdc**S&|\xf5\x93\x88&W\xa5"?\x1fY'
p122
ssS'settings___init__'
p123
(dp124
g6
(dp125
g8
I0
sg9
S'settings___init__.html'
p126
sg11
S'settings/__init__'
p127
sg13
g14
(g15
g16
NtRp128
(dp129
g19
I1
sg20
I0
sg21
I0
sg22
I0
sg23
I0
sg24
I0
sbssg25
S'\xb0\xc8pN\xaf>\xa0\xbaz\x144\xe0A9\xb8?'
p130
ssS'apps_administrator_views'
p131
(dp132
g6
(dp133
g8
I0
sg9
S'apps_administrator_views.html'
p134
sg11
S'apps/administrator/views'
p135
sg13
g14
(g15
g16
NtRp136
(dp137
g19
I1
sg20
I0
sg21
I166
sg22
I0
sg23
I127
sg24
I0
sbssg25
S'\x82\xccw\x9bL\xb2Q\x02\xd1G\x99%A$\xe6\xf2'
p138
ssS'conf_defaults'
p139
(dp140
g6
(dp141
g8
I0
sg9
S'conf_defaults.html'
p142
sg11
S'conf/defaults'
p143
sg13
g14
(g15
g16
NtRp144
(dp145
g19
I1
sg20
I0
sg21
I1
sg22
I0
sg23
I0
sg24
I0
sbssg25
S'MMG/sQ\xebl\xde9\xb6\tG\x83\x94g'
p146
ssS'apps_photo_manager_feeds'
p147
(dp148
g6
(dp149
g8
I0
sg9
S'apps_photo_manager_feeds.html'
p150
sg11
S'apps/photo_manager/feeds'
p151
sg13
g14
(g15
g16
NtRp152
(dp153
g19
I1
sg20
I0
sg21
I25
sg22
I0
sg23
I6
sg24
I0
sbssg25
S'\xa7\xa2\x1f(g\xff\xac\xd5q|N\xf53\xe8\x9bo'
p154
ssS'apps_profiles_admin'
p155
(dp156
g6
(dp157
g8
I0
sg9
S'apps_profiles_admin.html'
p158
sg11
S'apps/profiles/admin'
p159
sg13
g14
(g15
g16
NtRp160
(dp161
g19
I1
sg20
I0
sg21
I14
sg22
I0
sg23
I0
sg24
I0
sbssg25
S'\x8f[\xcc\x1b\xdbE\r\x9b(\xf9\x1fO-\xa1\xfc,'
p162
ssS'apps_photo_manager_tests_tests'
p163
(dp164
g6
(dp165
g8
I0
sg9
S'apps_photo_manager_tests_tests.html'
p166
sg11
S'apps/photo_manager/tests/tests'
p167
sg13
g14
(g15
g16
NtRp168
(dp169
g19
I1
sg20
I0
sg21
I0
sg22
I0
sg23
I0
sg24
I0
sbssg25
S'\xb0\xc8pN\xaf>\xa0\xbaz\x144\xe0A9\xb8?'
p170
ssS'apps_photo_manager___init__'
p171
(dp172
g6
(dp173
g8
I0
sg9
S'apps_photo_manager___init__.html'
p174
sg11
S'apps/photo_manager/__init__'
p175
sg13
g14
(g15
g16
NtRp176
(dp177
g19
I1
sg20
I0
sg21
I0
sg22
I0
sg23
I0
sg24
I0
sbssg25
S'\xb0\xc8pN\xaf>\xa0\xbaz\x144\xe0A9\xb8?'
p178
ssS'apps_profiles_migrations___init__'
p179
(dp180
g6
(dp181
g8
I0
sg9
S'apps_profiles_migrations___init__.html'
p182
sg11
S'apps/profiles/migrations/__init__'
p183
sg13
g14
(g15
g16
NtRp184
(dp185
g19
I1
sg20
I0
sg21
I0
sg22
I0
sg23
I0
sg24
I0
sbssg25
S'\xb0\xc8pN\xaf>\xa0\xbaz\x144\xe0A9\xb8?'
p186
ssS'apps_profiles_migrations_0002_auto__add_field_profile_profile_picture'
p187
(dp188
g6
(dp189
g8
I0
sg9
S'apps_profiles_migrations_0002_auto__add_field_profile_profile_picture.html'
p190
sg11
S'apps/profiles/migrations/0002_auto__add_field_profile_profile_picture'
p191
sg13
g14
(g15
g16
NtRp192
(dp193
g19
I1
sg20
I0
sg21
I11
sg22
I0
sg23
I1
sg24
I0
sbssg25
S'\xff\x16\x11$JB\x8d\x92\xa3\xa0\x1eu\xff\xed&\xe3'
p194
ssS'settings_local'
p195
(dp196
g6
(dp197
g8
I0
sg9
S'settings_local.html'
p198
sg11
S'settings/local'
p199
sg13
g14
(g15
g16
NtRp200
(dp201
g19
I1
sg20
I0
sg21
I19
sg22
I0
sg23
I0
sg24
I0
sbssg25
S'v\xc1\xc29\x81\x0bW\xc5\xcc\xab\xda\xfb\xa1\xc3\xd2\x9d'
p202
ssS'manage'
p203
(dp204
g6
(dp205
g8
I0
sg9
S'manage.html'
p206
sg11
g203
sg13
g14
(g15
g16
NtRp207
(dp208
g19
I1
sg20
I0
sg21
I6
sg22
I0
sg23
I0
sg24
I0
sbssg25
S'-\x0b\x1arF\x1bvK\x15\xc4\x87\xb6\x07Q\xf8\xba'
p209
ssS'apps_photo_manager_urls'
p210
(dp211
g6
(dp212
g8
I0
sg9
S'apps_photo_manager_urls.html'
p213
sg11
S'apps/photo_manager/urls'
p214
sg13
g14
(g15
g16
NtRp215
(dp216
g19
I1
sg20
I0
sg21
I12
sg22
I0
sg23
I0
sg24
I0
sbssg25
S'\x14\xe2\xcai\x9c$\xc3\xe7rC\xa3\xc3\xce\x906\xfb'
p217
ssS'apps_photo_manager_context_processors'
p218
(dp219
g6
(dp220
g8
I0
sg9
S'apps_photo_manager_context_processors.html'
p221
sg11
S'apps/photo_manager/context_processors'
p222
sg13
g14
(g15
g16
NtRp223
(dp224
g19
I1
sg20
I0
sg21
I13
sg22
I0
sg23
I0
sg24
I0
sbssg25
S'\xf9%\xd6\x05\xe3\xb0F\xb4g\x82Z\xe8w\x95\xbbM'
p225
ssS'apps_photo_manager_managers'
p226
(dp227
g6
(dp228
S'par'
p229
I0
sS'html_filename'
p230
S'apps_photo_manager_managers.html'
p231
sS'name'
p232
S'apps/photo_manager/managers'
p233
sS'nums'
p234
g14
(g15
g16
NtRp235
(dp236
g19
I1
sg20
I0
sg21
I4
sg22
I0
sg23
I1
sg24
I0
sbssg25
S'V\xca\xa7\x99\x06\x8c\x8f\x17q\xda\x07\xed\xac\x84\xca\xe3'
p237
ssS'apps_administrator_admin'
p238
(dp239
g6
(dp240
g8
I0
sg9
S'apps_administrator_admin.html'
p241
sg11
S'apps/administrator/admin'
p242
sg13
g14
(g15
g16
NtRp243
(dp244
g19
I1
sg20
I0
sg21
I3
sg22
I0
sg23
I0
sg24
I0
sbssg25
S'\xe7\x8e\x1b\xa8_Q=\x99\xe3^\xa7\xf5\xa34\x1f\xeb'
p245
ssS'apps_administrator_tasks'
p246
(dp247
g6
(dp248
g8
I0
sg9
S'apps_administrator_tasks.html'
p249
sg11
S'apps/administrator/tasks'
p250
sg13
g14
(g15
g16
NtRp251
(dp252
g19
I1
sg20
I0
sg21
I10
sg22
I0
sg23
I4
sg24
I0
sbssg25
S'a\xd3bteF~\x8c\xe3\xfb\xaeD\xe1\xd5\xe6\x8d'
p253
ssS'apps_photo_manager_migrations_0002_auto__add_field_photo_thumbs_created'
p254
(dp255
g6
(dp256
g8
I0
sg9
S'apps_photo_manager_migrations_0002_auto__add_field_photo_thumbs_created.html'
p257
sg11
S'apps/photo_manager/migrations/0002_auto__add_field_photo_thumbs_created'
p258
sg13
g14
(g15
g16
NtRp259
(dp260
g19
I1
sg20
I0
sg21
I11
sg22
I0
sg23
I1
sg24
I0
sbssg25
S'\r\xa1\xa2O\xcbx+\xa6R\xbd1\xa7\xa9\x98\xac\xbf'
p261
ssS'apps_administrator___init__'
p262
(dp263
g6
(dp264
g8
I0
sg9
S'apps_administrator___init__.html'
p265
sg11
S'apps/administrator/__init__'
p266
sg13
g14
(g15
g16
NtRp267
(dp268
g19
I1
sg20
I0
sg21
I0
sg22
I0
sg23
I0
sg24
I0
sbssg25
S'\xb0\xc8pN\xaf>\xa0\xbaz\x144\xe0A9\xb8?'
p269
ssS'apps_photo_manager_migrations_0003_auto__chg_field_photo_user__chg_field_photo_date_uploaded'
p270
(dp271
g6
(dp272
g8
I0
sg9
S'apps_photo_manager_migrations_0003_auto__chg_field_photo_user__chg_field_photo_date_uploaded.html'
p273
sg11
S'apps/photo_manager/migrations/0003_auto__chg_field_photo_user__chg_field_photo_date_uploaded'
p274
sg13
g14
(g15
g16
NtRp275
(dp276
g19
I1
sg20
I0
sg21
I13
sg22
I0
sg23
I2
sg24
I0
sbssg25
S'C\xa0\x17\xa3.\x8f\x1f\x04\x9f5Hg\xd3GSC'
p277
ssS'settings_common'
p278
(dp279
g6
(dp280
g8
I0
sg9
S'settings_common.html'
p281
sg11
S'settings/common'
p282
sg13
g14
(g15
g16
NtRp283
(dp284
g19
I1
sg20
I0
sg21
I25
sg22
I0
sg23
I0
sg24
I0
sbssg25
S'\x83>\xca\x95\xb0zH\xb1\xc3\xa8\x0e>\xcd\xe5\x14\xfe'
p285
ssS'apps_profiles_migrations_0001_initial'
p286
(dp287
g6
(dp288
g8
I0
sg9
S'apps_profiles_migrations_0001_initial.html'
p289
sg11
S'apps/profiles/migrations/0001_initial'
p290
sg13
g14
(g15
g16
NtRp291
(dp292
g19
I1
sg20
I0
sg21
I12
sg22
I0
sg23
I1
sg24
I0
sbssg25
S'G \xf5-\xcc\xc7\x15[\xfee\x92\x9b\x1e\xfb\xdd\xcb'
p293
ssS'apps_profiles_models'
p294
(dp295
g6
(dp296
g8
I0
sg9
S'apps_profiles_models.html'
p297
sg11
S'apps/profiles/models'
p298
sg13
g14
(g15
g16
NtRp299
(dp300
g19
I1
sg20
I0
sg21
I9
sg22
I0
sg23
I0
sg24
I0
sbssg25
S'\xfa\x0cD\x83\x9b\xc2T\x14c\x87\xc6\x19\x99kN\x07'
p301
ssS'apps_administrator_ajax'
p302
(dp303
g6
(dp304
g8
I0
sg9
S'apps_administrator_ajax.html'
p305
sg11
S'apps/administrator/ajax'
p306
sg13
g14
(g15
g16
NtRp307
(dp308
g19
I1
sg20
I0
sg21
I17
sg22
I0
sg23
I14
sg24
I0
sbssg25
S')\xece<=.\x1d<^.;l\x86\xa2\x1d\xbd'
p309
ssS'urls_local'
p310
(dp311
g6
(dp312
g8
I0
sg9
S'urls_local.html'
p313
sg11
S'urls/local'
p314
sg13
g14
(g15
g16
NtRp315
(dp316
g19
I1
sg20
I0
sg21
I6
sg22
I0
sg23
I0
sg24
I0
sbssg25
S'JK\x0c\x01P\xb7o\xf8\xc9\x13\x91\x11\x9d\xda\x93\x97'
p317
ssS'apps_photo_manager_tests_general'
p318
(dp319
g6
(dp320
S'par'
p321
I0
sS'html_filename'
p322
S'apps_photo_manager_tests_general.html'
p323
sS'name'
p324
S'apps/photo_manager/tests/general'
p325
sS'nums'
p326
g14
(g15
g16
NtRp327
(dp328
g19
I1
sg20
I0
sg21
I16
sg22
I0
sg23
I1
sg24
I0
sbssg25
S'\xc8u=\x9d\x1aY])\xfe\xc4\x02}\x85e72'
p329
ssS'apps_administrator_migrations_0002_auto__add_field_settings_enable_download'
p330
(dp331
g6
(dp332
g8
I0
sg9
S'apps_administrator_migrations_0002_auto__add_field_settings_enable_download.html'
p333
sg11
S'apps/administrator/migrations/0002_auto__add_field_settings_enable_download'
p334
sg13
g14
(g15
g16
NtRp335
(dp336
g19
I1
sg20
I0
sg21
I11
sg22
I0
sg23
I1
sg24
I0
sbssg25
S'\xca\xcb\x8b\xff?\x10+\xe7O2\xebk\xc9\x13^H'
p337
ssS'apps_profiles_views'
p338
(dp339
g6
(dp340
g8
I0
sg9
S'apps_profiles_views.html'
p341
sg11
S'apps/profiles/views'
p342
sg13
g14
(g15
g16
NtRp343
(dp344
g19
I1
sg20
I0
sg21
I48
sg22
I0
sg23
I37
sg24
I0
sbssg25
S'\xb6\xa0\xf6\xf9\x05\xd4(\xa5r\xe6i4a\xc5\xf0<'
p345
ssS'conf_environment'
p346
(dp347
g6
(dp348
g8
I0
sg9
S'conf_environment.html'
p349
sg11
S'conf/environment'
p350
sg13
g14
(g15
g16
NtRp351
(dp352
g19
I1
sg20
I0
sg21
I15
sg22
I0
sg23
I0
sg24
I0
sbssg25
S'\xd4w\x99qt\xad5\x9aKP\x1a\xb7\x14\x16\xca\xbc'
p353
ssS'apps_profiles_forms'
p354
(dp355
g6
(dp356
g8
I0
sg9
S'apps_profiles_forms.html'
p357
sg11
S'apps/profiles/forms'
p358
sg13
g14
(g15
g16
NtRp359
(dp360
g19
I1
sg20
I0
sg21
I5
sg22
I0
sg23
I0
sg24
I0
sbssg25
S'\t\x08\xbd\xb9ku\xd8\x86E;/\x12\xe5Zm\xb4'
p361
ssS'apps_photo_manager_forms'
p362
(dp363
g6
(dp364
g8
I0
sg9
S'apps_photo_manager_forms.html'
p365
sg11
S'apps/photo_manager/forms'
p366
sg13
g14
(g15
g16
NtRp367
(dp368
g19
I1
sg20
I0
sg21
I13
sg22
I0
sg23
I0
sg24
I0
sbssg25
S'\x1d\x8f_eX?\xcb\xea@\x7f\x9f\xd9\xbf\xbaOw'
p369
ssS'apps_photo_manager_models'
p370
(dp371
g6
(dp372
g8
I0
sg9
S'apps_photo_manager_models.html'
p373
sg11
S'apps/photo_manager/models'
p374
sg13
g14
(g15
g16
NtRp375
(dp376
g19
I1
sg20
I0
sg21
I117
sg22
I0
sg23
I64
sg24
I0
sbssg25
S']5\nV\xbaJ\x15i\x81^%\x05\x06\x87\x92\xf8'
p377
ssS'apps_photo_manager_migrations_0001_initial'
p378
(dp379
g6
(dp380
g8
I0
sg9
S'apps_photo_manager_migrations_0001_initial.html'
p381
sg11
S'apps/photo_manager/migrations/0001_initial'
p382
sg13
g14
(g15
g16
NtRp383
(dp384
g19
I1
sg20
I0
sg21
I15
sg22
I0
sg23
I2
sg24
I0
sbssg25
S'L\xc3G%\x96tt\x08\x81\x12\xf2\x90\x9c\x91\x02\xc5'
p385
ssS'apps_photo_manager_migrations___init__'
p386
(dp387
g6
(dp388
g8
I0
sg9
S'apps_photo_manager_migrations___init__.html'
p389
sg11
S'apps/photo_manager/migrations/__init__'
p390
sg13
g14
(g15
g16
NtRp391
(dp392
g19
I1
sg20
I0
sg21
I0
sg22
I0
sg23
I0
sg24
I0
sbssg25
S'\xb0\xc8pN\xaf>\xa0\xbaz\x144\xe0A9\xb8?'
p393
ssS'apps_photo_manager_migrations_0004_auto__add_field_photo_deleted'
p394
(dp395
g6
(dp396
g8
I0
sg9
S'apps_photo_manager_migrations_0004_auto__add_field_photo_deleted.html'
p397
sg11
S'apps/photo_manager/migrations/0004_auto__add_field_photo_deleted'
p398
sg13
g14
(g15
g16
NtRp399
(dp400
g19
I1
sg20
I0
sg21
I11
sg22
I0
sg23
I1
sg24
I0
sbssg25
S'=\x92\xa2\xd6\xb6\x17\tC\x91\x03\xc3\xbb\x91\x90\xe4\x00'
p401
ssS'conf___init__'
p402
(dp403
g6
(dp404
g8
I0
sg9
S'conf___init__.html'
p405
sg11
S'conf/__init__'
p406
sg13
g14
(g15
g16
NtRp407
(dp408
g19
I1
sg20
I0
sg21
I0
sg22
I0
sg23
I0
sg24
I0
sbssg25
S'\xb0\xc8pN\xaf>\xa0\xbaz\x144\xe0A9\xb8?'
p409
ssS'apps_administrator_migrations_0001_initial'
p410
(dp411
g6
(dp412
g8
I0
sg9
S'apps_administrator_migrations_0001_initial.html'
p413
sg11
S'apps/administrator/migrations/0001_initial'
p414
sg13
g14
(g15
g16
NtRp415
(dp416
g19
I1
sg20
I0
sg21
I12
sg22
I0
sg23
I1
sg24
I0
sbssg25
S'$\xeb\x1c\xa1\x92n\x03|\xbaW1OA\xd0\xbe\xf1'
p417
ssS'apps_administrator_forms'
p418
(dp419
g6
(dp420
g8
I0
sg9
S'apps_administrator_forms.html'
p421
sg11
S'apps/administrator/forms'
p422
sg13
g14
(g15
g16
NtRp423
(dp424
g19
I1
sg20
I0
sg21
I10
sg22
I0
sg23
I0
sg24
I0
sbssg25
S'\x9f8\x0cW\xadR\xba-M\xb5\x82\x8d\x9a\\Y\xbf'
p425
sssS'version'
p426
S'3.5.1'
p427
sS'settings'
p428
S"\x18\\\xc0\xf9'\xe3\x17\xc0\xf7'v\xb2\xbd\x00\xadL"
p429
sS'format'
p430
I1
s.