(dp1
S'files'
p2
(dp3
S'apps_photo_manager_tasks'
p4
(dp5
S'index'
p6
(dp7
S'par'
p8
I0
sS'html_filename'
p9
S'apps_photo_manager_tasks.html'
p10
sS'name'
p11
S'apps/photo_manager/tasks'
p12
sS'nums'
p13
ccopy_reg
_reconstructor
p14
(ccoverage.results
Numbers
p15
c__builtin__
object
p16
NtRp17
(dp18
S'n_files'
p19
I1
sS'n_branches'
p20
I0
sS'n_statements'
p21
I10
sS'n_excluded'
p22
I0
sS'n_missing'
p23
I4
sS'n_missing_branches'
p24
I0
sbssS'hash'
p25
S'a\xd3bteF~\x8c\xe3\xfb\xaeD\xe1\xd5\xe6\x8d'
p26
ssS'apps_administrator_models'
p27
(dp28
S'index'
p29
(dp30
S'par'
p31
I0
sS'html_filename'
p32
S'apps_administrator_models.html'
p33
sS'name'
p34
S'apps/administrator/models'
p35
sS'nums'
p36
g14
(g15
g16
NtRp37
(dp38
g19
I1
sg20
I0
sg21
I6
sg22
I0
sg23
I1
sg24
I0
sbssS'hash'
p39
S'\x83\xd9\xcb\x10\xa1k\x03\xf1\xe3\xd2@Fb\x94\xdb\xa3'
p40
ssS'apps_profiles___init__'
p41
(dp42
g29
(dp43
g31
I0
sg32
S'apps_profiles___init__.html'
p44
sg34
S'apps/profiles/__init__'
p45
sg36
g14
(g15
g16
NtRp46
(dp47
g19
I1
sg20
I0
sg21
I0
sg22
I0
sg23
I0
sg24
I0
sbssg39
S'\xb0\xc8pN\xaf>\xa0\xbaz\x144\xe0A9\xb8?'
p48
ssS'apps_photo_manager_tests___init__'
p49
(dp50
g29
(dp51
S'par'
p52
I0
sS'html_filename'
p53
S'apps_photo_manager_tests___init__.html'
p54
sS'name'
p55
S'apps/photo_manager/tests/__init__'
p56
sS'nums'
p57
g14
(g15
g16
NtRp58
(dp59
g19
I1
sg20
I0
sg21
I2
sg22
I0
sg23
I0
sg24
I0
sbssg39
S'`\x0f\\\xc9\xca\xfa%\xef\x13\xb8\xe1\xac\xcbS^\n'
p60
ssS'apps_photo_manager_api'
p61
(dp62
g6
(dp63
g8
I0
sg9
S'apps_photo_manager_api.html'
p64
sg11
S'apps/photo_manager/api'
p65
sg13
g14
(g15
g16
NtRp66
(dp67
g19
I1
sg20
I0
sg21
I60
sg22
I0
sg23
I25
sg24
I0
sbssg25
S'\xe73G\xed7\x1b\xf4\xca\x90\x18\xb2\xeb\xac\xa6\x8e\xbb'
p68
ssS'manage'
p69
(dp70
g29
(dp71
g31
I0
sg32
S'manage.html'
p72
sg34
g69
sg36
g14
(g15
g16
NtRp73
(dp74
g19
I1
sg20
I0
sg21
I6
sg22
I0
sg23
I0
sg24
I0
sbssg39
S'-\x0b\x1arF\x1bvK\x15\xc4\x87\xb6\x07Q\xf8\xba'
p75
ssS'apps_administrator_urls'
p76
(dp77
g6
(dp78
g8
I0
sg9
S'apps_administrator_urls.html'
p79
sg11
S'apps/administrator/urls'
p80
sg13
g14
(g15
g16
NtRp81
(dp82
g19
I1
sg20
I0
sg21
I3
sg22
I0
sg23
I0
sg24
I0
sbssg25
S'\x86\r{;3\x88\xcaH\xedVJ\xc4\x96\xa3\xf4B'
p83
ssS'apps_administrator_jobs'
p84
(dp85
S'index'
p86
(dp87
S'par'
p88
I0
sS'html_filename'
p89
S'apps_administrator_jobs.html'
p90
sS'name'
p91
S'apps/administrator/jobs'
p92
sS'nums'
p93
g14
(g15
g16
NtRp94
(dp95
g19
I1
sg20
I0
sg21
I13
sg22
I0
sg23
I11
sg24
I0
sbssS'hash'
p96
S't\xddR\xec\n\xbc\xd0y\xb6|\x87i8u\xcf\x1e'
p97
ssS'apps_photo_manager_views'
p98
(dp99
g6
(dp100
g8
I0
sg9
S'apps_photo_manager_views.html'
p101
sg11
S'apps/photo_manager/views'
p102
sg13
g14
(g15
g16
NtRp103
(dp104
g19
I1
sg20
I0
sg21
I132
sg22
I0
sg23
I97
sg24
I0
sbssg25
S'|7\xe6zr\x96/\xa32\xd2\x96+C0\xea\xcd'
p105
ssS'settings___init__'
p106
(dp107
g29
(dp108
g31
I0
sg32
S'settings___init__.html'
p109
sg34
S'settings/__init__'
p110
sg36
g14
(g15
g16
NtRp111
(dp112
g19
I1
sg20
I0
sg21
I0
sg22
I0
sg23
I0
sg24
I0
sbssg39
S'\xb0\xc8pN\xaf>\xa0\xbaz\x144\xe0A9\xb8?'
p113
ssS'apps_profiles_choices'
p114
(dp115
g29
(dp116
g31
I0
sg32
S'apps_profiles_choices.html'
p117
sg34
S'apps/profiles/choices'
p118
sg36
g14
(g15
g16
NtRp119
(dp120
g19
I1
sg20
I0
sg21
I1
sg22
I0
sg23
I0
sg24
I0
sbssg39
S'\x8e\xb4\xc0\t\xd4\xf5FJWIp\xdcv\x99\x1b\x14'
p121
ssS'urls___init__'
p122
(dp123
g6
(dp124
g8
I0
sg9
S'urls___init__.html'
p125
sg11
S'urls/__init__'
p126
sg13
g14
(g15
g16
NtRp127
(dp128
g19
I1
sg20
I0
sg21
I0
sg22
I0
sg23
I0
sg24
I0
sbssg25
S'\xb0\xc8pN\xaf>\xa0\xbaz\x144\xe0A9\xb8?'
p129
ssS'apps_photo_manager___init__'
p130
(dp131
g29
(dp132
g31
I0
sg32
S'apps_photo_manager___init__.html'
p133
sg34
S'apps/photo_manager/__init__'
p134
sg36
g14
(g15
g16
NtRp135
(dp136
g19
I1
sg20
I0
sg21
I0
sg22
I0
sg23
I0
sg24
I0
sbssg39
S'\xb0\xc8pN\xaf>\xa0\xbaz\x144\xe0A9\xb8?'
p137
ssS'apps_administrator_tests___init__'
p138
(dp139
g86
(dp140
g88
I0
sg89
S'apps_administrator_tests___init__.html'
p141
sg91
S'apps/administrator/tests/__init__'
p142
sg93
g14
(g15
g16
NtRp143
(dp144
g19
I1
sg20
I0
sg21
I0
sg22
I0
sg23
I0
sg24
I0
sbssg96
S'\xb0\xc8pN\xaf>\xa0\xbaz\x144\xe0A9\xb8?'
p145
ssS'apps_photo_manager_admin'
p146
(dp147
g6
(dp148
g8
I0
sg9
S'apps_photo_manager_admin.html'
p149
sg11
S'apps/photo_manager/admin'
p150
sg13
g14
(g15
g16
NtRp151
(dp152
g19
I1
sg20
I0
sg21
I9
sg22
I0
sg23
I0
sg24
I0
sbssg25
S'\xdc**S&|\xf5\x93\x88&W\xa5"?\x1fY'
p153
ssS'apps_photo_manager_tests_factories'
p154
(dp155
g29
(dp156
g31
I0
sg32
S'apps_photo_manager_tests_factories.html'
p157
sg34
S'apps/photo_manager/tests/factories'
p158
sg36
g14
(g15
g16
NtRp159
(dp160
g19
I1
sg20
I0
sg21
I8
sg22
I0
sg23
I0
sg24
I0
sbssg39
S'\x8es\x0f\xae\xac\x95\x02\xe3\xbbq\x15\xff\xe00 \x89'
p161
ssS'apps_photo_manager_tests_live'
p162
(dp163
g29
(dp164
S'par'
p165
I0
sS'html_filename'
p166
S'apps_photo_manager_tests_live.html'
p167
sS'name'
p168
S'apps/photo_manager/tests/live'
p169
sS'nums'
p170
g14
(g15
g16
NtRp171
(dp172
g19
I1
sg20
I0
sg21
I26
sg22
I0
sg23
I0
sg24
I0
sbssg39
S'\xdc.\x02\xdb\x1a\x18\xf0N[\xaeY\xd5\x01\xfa\x9b['
p173
ssS'apps_administrator_views'
p174
(dp175
g6
(dp176
g8
I0
sg9
S'apps_administrator_views.html'
p177
sg11
S'apps/administrator/views'
p178
sg13
g14
(g15
g16
NtRp179
(dp180
g19
I1
sg20
I0
sg21
I166
sg22
I0
sg23
I127
sg24
I0
sbssg25
S'\x82\xccw\x9bL\xb2Q\x02\xd1G\x99%A$\xe6\xf2'
p181
ssS'conf_defaults'
p182
(dp183
g6
(dp184
g8
I0
sg9
S'conf_defaults.html'
p185
sg11
S'conf/defaults'
p186
sg13
g14
(g15
g16
NtRp187
(dp188
g19
I1
sg20
I0
sg21
I1
sg22
I0
sg23
I0
sg24
I0
sbssg25
S'MMG/sQ\xebl\xde9\xb6\tG\x83\x94g'
p189
ssS'apps_photo_manager_feeds'
p190
(dp191
g6
(dp192
g8
I0
sg9
S'apps_photo_manager_feeds.html'
p193
sg11
S'apps/photo_manager/feeds'
p194
sg13
g14
(g15
g16
NtRp195
(dp196
g19
I1
sg20
I0
sg21
I25
sg22
I0
sg23
I7
sg24
I0
sbssg25
S'\x96\x9bo\x11\x93tz+U(\x96\xcd\xd17\x99N'
p197
ssS'apps_profiles_admin'
p198
(dp199
g6
(dp200
g8
I0
sg9
S'apps_profiles_admin.html'
p201
sg11
S'apps/profiles/admin'
p202
sg13
g14
(g15
g16
NtRp203
(dp204
g19
I1
sg20
I0
sg21
I14
sg22
I0
sg23
I0
sg24
I0
sbssg25
S'\x8f[\xcc\x1b\xdbE\r\x9b(\xf9\x1fO-\xa1\xfc,'
p205
ssS'apps_photo_manager_tests_models'
p206
(dp207
g29
(dp208
S'par'
p209
I0
sS'html_filename'
p210
S'apps_photo_manager_tests_models.html'
p211
sS'name'
p212
S'apps/photo_manager/tests/models'
p213
sS'nums'
p214
g14
(g15
g16
NtRp215
(dp216
g19
I1
sg20
I0
sg21
I21
sg22
I0
sg23
I0
sg24
I0
sbssg39
S',n|\xbd*\r\xb2>\xab\x0b\x9d\x90\xeb\xdf\xbe '
p217
ssS'settings_local'
p218
(dp219
g29
(dp220
g31
I0
sg32
S'settings_local.html'
p221
sg34
S'settings/local'
p222
sg36
g14
(g15
g16
NtRp223
(dp224
g19
I1
sg20
I0
sg21
I19
sg22
I0
sg23
I0
sg24
I0
sbssg39
S'v\xc1\xc29\x81\x0bW\xc5\xcc\xab\xda\xfb\xa1\xc3\xd2\x9d'
p225
ssS'apps_administrator_context_processors'
p226
(dp227
g6
(dp228
g88
I0
sg89
S'apps_administrator_context_processors.html'
p229
sg91
S'apps/administrator/context_processors'
p230
sg93
g14
(g15
g16
NtRp231
(dp232
g19
I1
sg20
I0
sg21
I6
sg22
I0
sg23
I0
sg24
I0
sbssg25
S'\xaa\xa4\xec\xbd\xde\xb6\xc6\xaa\xec\x1b[\xb2\xb1;Z_'
p233
ssS'apps_photo_manager_urls'
p234
(dp235
g6
(dp236
g8
I0
sg9
S'apps_photo_manager_urls.html'
p237
sg11
S'apps/photo_manager/urls'
p238
sg13
g14
(g15
g16
NtRp239
(dp240
g19
I1
sg20
I0
sg21
I12
sg22
I0
sg23
I0
sg24
I0
sbssg25
S'\x14\xe2\xcai\x9c$\xc3\xe7rC\xa3\xc3\xce\x906\xfb'
p241
ssS'apps_photo_manager_context_processors'
p242
(dp243
g6
(dp244
g8
I0
sg9
S'apps_photo_manager_context_processors.html'
p245
sg11
S'apps/photo_manager/context_processors'
p246
sg13
g14
(g15
g16
NtRp247
(dp248
g19
I1
sg20
I0
sg21
I13
sg22
I0
sg23
I0
sg24
I0
sbssg25
S'\xf9%\xd6\x05\xe3\xb0F\xb4g\x82Z\xe8w\x95\xbbM'
p249
ssS'apps_photo_manager_managers'
p250
(dp251
g29
(dp252
g52
I0
sg53
S'apps_photo_manager_managers.html'
p253
sg55
S'apps/photo_manager/managers'
p254
sg57
g14
(g15
g16
NtRp255
(dp256
g19
I1
sg20
I0
sg21
I4
sg22
I0
sg23
I0
sg24
I0
sbssg39
S'y?\xe79\xb7\x95l\xd7\xe4J\x04g\xffW\r\xe5'
p257
ssS'apps_administrator_admin'
p258
(dp259
g6
(dp260
g8
I0
sg9
S'apps_administrator_admin.html'
p261
sg11
S'apps/administrator/admin'
p262
sg13
g14
(g15
g16
NtRp263
(dp264
g19
I1
sg20
I0
sg21
I3
sg22
I0
sg23
I0
sg24
I0
sbssg25
S'\xe7\x8e\x1b\xa8_Q=\x99\xe3^\xa7\xf5\xa34\x1f\xeb'
p265
ssS'apps_administrator_tasks'
p266
(dp267
g6
(dp268
g8
I0
sg9
S'apps_administrator_tasks.html'
p269
sg11
S'apps/administrator/tasks'
p270
sg13
g14
(g15
g16
NtRp271
(dp272
g19
I1
sg20
I0
sg21
I10
sg22
I0
sg23
I4
sg24
I0
sbssg25
S'a\xd3bteF~\x8c\xe3\xfb\xaeD\xe1\xd5\xe6\x8d'
p273
ssS'apps_administrator___init__'
p274
(dp275
g29
(dp276
g31
I0
sg32
S'apps_administrator___init__.html'
p277
sg34
S'apps/administrator/__init__'
p278
sg36
g14
(g15
g16
NtRp279
(dp280
g19
I1
sg20
I0
sg21
I0
sg22
I0
sg23
I0
sg24
I0
sbssg39
S'\xb0\xc8pN\xaf>\xa0\xbaz\x144\xe0A9\xb8?'
p281
ssS'apps_administrator_tests_factories'
p282
(dp283
g86
(dp284
g88
I0
sg89
S'apps_administrator_tests_factories.html'
p285
sg91
S'apps/administrator/tests/factories'
p286
sg93
g14
(g15
g16
NtRp287
(dp288
g19
I1
sg20
I0
sg21
I6
sg22
I0
sg23
I0
sg24
I0
sbssg96
S'\xf6\xae\x9f\t_\xe5\xd3\x82\xb1\xd6\xea\xf8\x11\xe0\xdd\x19'
p289
ssS'settings_common'
p290
(dp291
g29
(dp292
g31
I0
sg32
S'settings_common.html'
p293
sg34
S'settings/common'
p294
sg36
g14
(g15
g16
NtRp295
(dp296
g19
I1
sg20
I0
sg21
I25
sg22
I0
sg23
I0
sg24
I0
sbssg39
S'\x83>\xca\x95\xb0zH\xb1\xc3\xa8\x0e>\xcd\xe5\x14\xfe'
p297
ssS'apps_profiles_models'
p298
(dp299
g29
(dp300
g31
I0
sg32
S'apps_profiles_models.html'
p301
sg34
S'apps/profiles/models'
p302
sg36
g14
(g15
g16
NtRp303
(dp304
g19
I1
sg20
I0
sg21
I9
sg22
I0
sg23
I0
sg24
I0
sbssg39
S'\xfa\x0cD\x83\x9b\xc2T\x14c\x87\xc6\x19\x99kN\x07'
p305
ssS'apps_administrator_ajax'
p306
(dp307
g86
(dp308
g88
I0
sg89
S'apps_administrator_ajax.html'
p309
sg91
S'apps/administrator/ajax'
p310
sg93
g14
(g15
g16
NtRp311
(dp312
g19
I1
sg20
I0
sg21
I17
sg22
I0
sg23
I14
sg24
I0
sbssg96
S')\xece<=.\x1d<^.;l\x86\xa2\x1d\xbd'
p313
ssS'urls_local'
p314
(dp315
g6
(dp316
g8
I0
sg9
S'urls_local.html'
p317
sg11
S'urls/local'
p318
sg13
g14
(g15
g16
NtRp319
(dp320
g19
I1
sg20
I0
sg21
I6
sg22
I0
sg23
I0
sg24
I0
sbssg25
S'JK\x0c\x01P\xb7o\xf8\xc9\x13\x91\x11\x9d\xda\x93\x97'
p321
ssS'apps_profiles_views'
p322
(dp323
g86
(dp324
g88
I0
sg89
S'apps_profiles_views.html'
p325
sg91
S'apps/profiles/views'
p326
sg93
g14
(g15
g16
NtRp327
(dp328
g19
I1
sg20
I0
sg21
I48
sg22
I0
sg23
I37
sg24
I0
sbssg96
S'\xb6\xa0\xf6\xf9\x05\xd4(\xa5r\xe6i4a\xc5\xf0<'
p329
ssS'conf_environment'
p330
(dp331
g29
(dp332
g31
I0
sg32
S'conf_environment.html'
p333
sg34
S'conf/environment'
p334
sg36
g14
(g15
g16
NtRp335
(dp336
g19
I1
sg20
I0
sg21
I15
sg22
I0
sg23
I0
sg24
I0
sbssg39
S'\xd4w\x99qt\xad5\x9aKP\x1a\xb7\x14\x16\xca\xbc'
p337
ssS'apps_profiles_forms'
p338
(dp339
g86
(dp340
g88
I0
sg89
S'apps_profiles_forms.html'
p341
sg91
S'apps/profiles/forms'
p342
sg93
g14
(g15
g16
NtRp343
(dp344
g19
I1
sg20
I0
sg21
I5
sg22
I0
sg23
I0
sg24
I0
sbssg96
S'\t\x08\xbd\xb9ku\xd8\x86E;/\x12\xe5Zm\xb4'
p345
ssS'apps_photo_manager_forms'
p346
(dp347
g6
(dp348
g8
I0
sg9
S'apps_photo_manager_forms.html'
p349
sg11
S'apps/photo_manager/forms'
p350
sg13
g14
(g15
g16
NtRp351
(dp352
g19
I1
sg20
I0
sg21
I13
sg22
I0
sg23
I0
sg24
I0
sbssg25
S'\x1d\x8f_eX?\xcb\xea@\x7f\x9f\xd9\xbf\xbaOw'
p353
ssS'apps_photo_manager_models'
p354
(dp355
g29
(dp356
g52
I0
sg53
S'apps_photo_manager_models.html'
p357
sg55
S'apps/photo_manager/models'
p358
sg57
g14
(g15
g16
NtRp359
(dp360
g19
I1
sg20
I0
sg21
I117
sg22
I0
sg23
I58
sg24
I0
sbssg39
S'\x07\\"\xa1_\x9e\xf3[b\x91\xc89\xe0\x91\xe3\x15'
p361
ssS'conf___init__'
p362
(dp363
g29
(dp364
g31
I0
sg32
S'conf___init__.html'
p365
sg34
S'conf/__init__'
p366
sg36
g14
(g15
g16
NtRp367
(dp368
g19
I1
sg20
I0
sg21
I0
sg22
I0
sg23
I0
sg24
I0
sbssg39
S'\xb0\xc8pN\xaf>\xa0\xbaz\x144\xe0A9\xb8?'
p369
ssS'apps_administrator_forms'
p370
(dp371
g6
(dp372
g8
I0
sg9
S'apps_administrator_forms.html'
p373
sg11
S'apps/administrator/forms'
p374
sg13
g14
(g15
g16
NtRp375
(dp376
g19
I1
sg20
I0
sg21
I10
sg22
I0
sg23
I0
sg24
I0
sbssg25
S'\x9f8\x0cW\xadR\xba-M\xb5\x82\x8d\x9a\\Y\xbf'
p377
sssS'version'
p378
S'3.5.1'
p379
sS'settings'
p380
S'\x94A\xeaf\x87\xeb\xf8\xc2\xe1\x12\xbe7|\xaf\xa3\xf7'
p381
sS'format'
p382
I1
s.